ARM GAS  C:\Users\megan\AppData\Local\Temp\ccxLMs0j.s 			page 1


   1              		.syntax unified
   2              		.cpu cortex-m0
   3              		.fpu softvfp
   4              		.eabi_attribute 20, 1
   5              		.eabi_attribute 21, 1
   6              		.eabi_attribute 23, 3
   7              		.eabi_attribute 24, 1
   8              		.eabi_attribute 25, 1
   9              		.eabi_attribute 26, 1
  10              		.eabi_attribute 30, 6
  11              		.eabi_attribute 34, 0
  12              		.eabi_attribute 18, 4
  13              		.thumb
  14              		.syntax unified
  15              		.file	"main.c"
  16              		.text
  17              	.Ltext0:
  18              		.cfi_sections	.debug_frame
  19              		.comm	_cs,1,1
  20              		.comm	_rst,1,1
  21              		.comm	_width,2,2
  22              		.comm	_height,2,2
  23              		.comm	_textScale,1,1
  24              		.comm	_size,1,1
  25              		.section	.rodata
  26              		.align	2
  27              	.LC0:
  28 0000 4D656761 		.ascii	"Megan Bird\000"
  28      6E204269 
  28      726400
  29 000b 00       		.align	2
  30              	.LC2:
  31 000c 4543454E 		.ascii	"ECEN 4350\000"
  31      20343335 
  31      3000
  32 0016 0000     		.align	2
  33              	.LC4:
  34 0018 46616C6C 		.ascii	"Fall 2017\000"
  34      20323031 
  34      3700
  35 0022 0000     		.align	2
  36              	.LC6:
  37 0024 424C455F 		.ascii	"BLE_Central\000"
  37      43656E74 
  37      72616C00 
  38              		.align	2
  39              	.LC8:
  40 0030 424C4520 		.ascii	"BLE Start() Error\000"
  40      53746172 
  40      74282920 
  40      4572726F 
  40      7200
  41 0042 0000     		.align	2
  42              	.LC10:
  43 0044 424C4520 		.ascii	"BLE Advertise Successful\000"
  43      41647665 
  43      72746973 
ARM GAS  C:\Users\megan\AppData\Local\Temp\ccxLMs0j.s 			page 2


  43      65205375 
  43      63636573 
  44              		.section	.text.main,"ax",%progbits
  45              		.align	2
  46              		.global	main
  47              		.code	16
  48              		.thumb_func
  49              		.type	main, %function
  50              	main:
  51              	.LFB35:
  52              		.file 1 "main.c"
   1:main.c        **** /* ========================================
   2:main.c        ****  *
   3:main.c        ****  * Copyright YOUR COMPANY, THE YEAR
   4:main.c        ****  * All Rights Reserved
   5:main.c        ****  * UNPUBLISHED, LICENSED SOFTWARE.
   6:main.c        ****  *
   7:main.c        ****  * CONFIDENTIAL AND PROPRIETARY INFORMATION
   8:main.c        ****  * WHICH IS THE PROPERTY OF your company.
   9:main.c        ****  *
  10:main.c        ****  * ========================================
  11:main.c        **** */
  12:main.c        **** #include <project.h>
  13:main.c        **** #include <RA8875.h>
  14:main.c        **** 
  15:main.c        **** void StackEventHandler( uint32 eventCode, void *eventParam );
  16:main.c        **** 
  17:main.c        **** /* define the test register to switch the PA/LNA hardware control pins */
  18:main.c        **** #define CYREG_SRSS_TST_DDFT_CTRL 0x40030008
  19:main.c        **** 
  20:main.c        **** int main()
  21:main.c        **** {
  53              		.loc 1 21 0
  54              		.cfi_startproc
  55              		@ args = 0, pretend = 0, frame = 112
  56              		@ frame_needed = 1, uses_anonymous_args = 0
  57 0000 90B5     		push	{r4, r7, lr}
  58              		.cfi_def_cfa_offset 12
  59              		.cfi_offset 4, -12
  60              		.cfi_offset 7, -8
  61              		.cfi_offset 14, -4
  62 0002 A1B0     		sub	sp, sp, #132
  63              		.cfi_def_cfa_offset 144
  64 0004 04AF     		add	r7, sp, #16
  65              		.cfi_def_cfa 7, 128
  22:main.c        ****     //------ Declarations -------//
  23:main.c        ****     
  24:main.c        ****     // LCD Strings
  25:main.c        ****     char welcome1[] = "Megan Bird";
  66              		.loc 1 25 0
  67 0006 5823     		movs	r3, #88
  68 0008 FB18     		adds	r3, r7, r3
  69 000a EA4A     		ldr	r2, .L7
  70 000c 03CA     		ldmia	r2!, {r0, r1}
  71 000e 03C3     		stmia	r3!, {r0, r1}
  72 0010 1188     		ldrh	r1, [r2]
  73 0012 1980     		strh	r1, [r3]
ARM GAS  C:\Users\megan\AppData\Local\Temp\ccxLMs0j.s 			page 3


  74 0014 9278     		ldrb	r2, [r2, #2]
  75 0016 9A70     		strb	r2, [r3, #2]
  26:main.c        ****     char welcome2[] = "ECEN 4350";
  76              		.loc 1 26 0
  77 0018 4C23     		movs	r3, #76
  78 001a FB18     		adds	r3, r7, r3
  79 001c E64A     		ldr	r2, .L7+4
  80 001e 03CA     		ldmia	r2!, {r0, r1}
  81 0020 03C3     		stmia	r3!, {r0, r1}
  82 0022 1288     		ldrh	r2, [r2]
  83 0024 1A80     		strh	r2, [r3]
  27:main.c        ****     char welcome3[] = "Fall 2017";
  84              		.loc 1 27 0
  85 0026 4023     		movs	r3, #64
  86 0028 FB18     		adds	r3, r7, r3
  87 002a E44A     		ldr	r2, .L7+8
  88 002c 03CA     		ldmia	r2!, {r0, r1}
  89 002e 03C3     		stmia	r3!, {r0, r1}
  90 0030 1288     		ldrh	r2, [r2]
  91 0032 1A80     		strh	r2, [r3]
  28:main.c        ****     char ble[] = "BLE_Central";
  92              		.loc 1 28 0
  93 0034 3423     		movs	r3, #52
  94 0036 FB18     		adds	r3, r7, r3
  95 0038 E14A     		ldr	r2, .L7+12
  96 003a 13CA     		ldmia	r2!, {r0, r1, r4}
  97 003c 13C3     		stmia	r3!, {r0, r1, r4}
  29:main.c        ****     
  30:main.c        ****     uint16_t x;
  31:main.c        ****     uint16_t y;
  32:main.c        ****     bool waiting = true;
  98              		.loc 1 32 0
  99 003e 6F23     		movs	r3, #111
 100 0040 FB18     		adds	r3, r7, r3
 101 0042 0122     		movs	r2, #1
 102 0044 1A70     		strb	r2, [r3]
  33:main.c        ****     
  34:main.c        ****     char BLE_START_ERROR[] = "BLE Start() Error";
 103              		.loc 1 34 0
 104 0046 1C23     		movs	r3, #28
 105 0048 FB18     		adds	r3, r7, r3
 106 004a DE4A     		ldr	r2, .L7+16
 107 004c 13CA     		ldmia	r2!, {r0, r1, r4}
 108 004e 13C3     		stmia	r3!, {r0, r1, r4}
 109 0050 1168     		ldr	r1, [r2]
 110 0052 1960     		str	r1, [r3]
 111 0054 9288     		ldrh	r2, [r2, #4]
 112 0056 9A80     		strh	r2, [r3, #4]
  35:main.c        ****     char STR_CYBLE_ERROR_OK[] = "BLE Advertise Successful";
 113              		.loc 1 35 0
 114 0058 3B00     		movs	r3, r7
 115 005a DB4A     		ldr	r2, .L7+20
 116 005c 13CA     		ldmia	r2!, {r0, r1, r4}
 117 005e 13C3     		stmia	r3!, {r0, r1, r4}
 118 0060 13CA     		ldmia	r2!, {r0, r1, r4}
 119 0062 13C3     		stmia	r3!, {r0, r1, r4}
 120 0064 1278     		ldrb	r2, [r2]
ARM GAS  C:\Users\megan\AppData\Local\Temp\ccxLMs0j.s 			page 4


 121 0066 1A70     		strb	r2, [r3]
  36:main.c        ****     
  37:main.c        ****     CYBLE_API_RESULT_T apiResult;
  38:main.c        ****     //---------------------------//
  39:main.c        ****     
  40:main.c        ****      CyGlobalIntEnable;   /* Enable global interrupts */
 122              		.loc 1 40 0
 123              		.syntax divided
 124              	@ 40 "main.c" 1
 125 0068 62B6     		CPSIE   i
 126              	@ 0 "" 2
  41:main.c        **** 
  42:main.c        ****     
  43:main.c        ****     //------ LCD Setup ------//   
  44:main.c        ****     
  45:main.c        ****     rst0_m_Write(1u);
 127              		.loc 1 45 0
 128              		.thumb
 129              		.syntax unified
 130 006a 0120     		movs	r0, #1
 131 006c FFF7FEFF 		bl	rst0_m_Write
  46:main.c        ****     
  47:main.c        ****     begin(RA8875_800x480);
 132              		.loc 1 47 0
 133 0070 0120     		movs	r0, #1
 134 0072 FFF7FEFF 		bl	begin
  48:main.c        ****     displayOn(true);
 135              		.loc 1 48 0
 136 0076 0120     		movs	r0, #1
 137 0078 FFF7FEFF 		bl	displayOn
  49:main.c        ****     GPIOX(true);      // Enable TFT - display enable tied to GPIOX
 138              		.loc 1 49 0
 139 007c 0120     		movs	r0, #1
 140 007e FFF7FEFF 		bl	GPIOX
  50:main.c        ****     
  51:main.c        ****     PWM1config(true, RA8875_PWM_CLK_DIV1024); // PWM output for backlight  
 141              		.loc 1 51 0
 142 0082 0A21     		movs	r1, #10
 143 0084 0120     		movs	r0, #1
 144 0086 FFF7FEFF 		bl	PWM1config
  52:main.c        ****     PWM1out(255);
 145              		.loc 1 52 0
 146 008a FF20     		movs	r0, #255
 147 008c FFF7FEFF 		bl	PWM1out
  53:main.c        ****     
  54:main.c        ****     LCD_int_Write(1u);
 148              		.loc 1 54 0
 149 0090 0120     		movs	r0, #1
 150 0092 FFF7FEFF 		bl	LCD_int_Write
  55:main.c        ****     touchEnable(true);   
 151              		.loc 1 55 0
 152 0096 0120     		movs	r0, #1
 153 0098 FFF7FEFF 		bl	touchEnable
  56:main.c        ****     
  57:main.c        ****     //----- Color Demo -----//
  58:main.c        ****     
  59:main.c        ****     fillScreen(RA8875_WHITE);    
ARM GAS  C:\Users\megan\AppData\Local\Temp\ccxLMs0j.s 			page 5


 154              		.loc 1 59 0
 155 009c CB4B     		ldr	r3, .L7+24
 156 009e 1800     		movs	r0, r3
 157 00a0 FFF7FEFF 		bl	fillScreen
  60:main.c        ****     CyDelay(500);
 158              		.loc 1 60 0
 159 00a4 FA23     		movs	r3, #250
 160 00a6 5B00     		lsls	r3, r3, #1
 161 00a8 1800     		movs	r0, r3
 162 00aa FFF7FEFF 		bl	CyDelay
  61:main.c        ****     fillScreen(RA8875_RED);
 163              		.loc 1 61 0
 164 00ae F823     		movs	r3, #248
 165 00b0 1B02     		lsls	r3, r3, #8
 166 00b2 1800     		movs	r0, r3
 167 00b4 FFF7FEFF 		bl	fillScreen
  62:main.c        ****     CyDelay(500);
 168              		.loc 1 62 0
 169 00b8 FA23     		movs	r3, #250
 170 00ba 5B00     		lsls	r3, r3, #1
 171 00bc 1800     		movs	r0, r3
 172 00be FFF7FEFF 		bl	CyDelay
  63:main.c        ****     fillScreen(RA8875_YELLOW);
 173              		.loc 1 63 0
 174 00c2 C34B     		ldr	r3, .L7+28
 175 00c4 1800     		movs	r0, r3
 176 00c6 FFF7FEFF 		bl	fillScreen
  64:main.c        ****     CyDelay(500);
 177              		.loc 1 64 0
 178 00ca FA23     		movs	r3, #250
 179 00cc 5B00     		lsls	r3, r3, #1
 180 00ce 1800     		movs	r0, r3
 181 00d0 FFF7FEFF 		bl	CyDelay
  65:main.c        ****     fillScreen(RA8875_GREEN);
 182              		.loc 1 65 0
 183 00d4 FC23     		movs	r3, #252
 184 00d6 DB00     		lsls	r3, r3, #3
 185 00d8 1800     		movs	r0, r3
 186 00da FFF7FEFF 		bl	fillScreen
  66:main.c        ****     CyDelay(500);
 187              		.loc 1 66 0
 188 00de FA23     		movs	r3, #250
 189 00e0 5B00     		lsls	r3, r3, #1
 190 00e2 1800     		movs	r0, r3
 191 00e4 FFF7FEFF 		bl	CyDelay
  67:main.c        ****     fillScreen(RA8875_BLUE);
 192              		.loc 1 67 0
 193 00e8 1F20     		movs	r0, #31
 194 00ea FFF7FEFF 		bl	fillScreen
  68:main.c        ****     CyDelay(500);
 195              		.loc 1 68 0
 196 00ee FA23     		movs	r3, #250
 197 00f0 5B00     		lsls	r3, r3, #1
 198 00f2 1800     		movs	r0, r3
 199 00f4 FFF7FEFF 		bl	CyDelay
  69:main.c        ****     fillScreen(RA8875_CYAN);
 200              		.loc 1 69 0
ARM GAS  C:\Users\megan\AppData\Local\Temp\ccxLMs0j.s 			page 6


 201 00f8 B64B     		ldr	r3, .L7+32
 202 00fa 1800     		movs	r0, r3
 203 00fc FFF7FEFF 		bl	fillScreen
  70:main.c        ****     CyDelay(500);
 204              		.loc 1 70 0
 205 0100 FA23     		movs	r3, #250
 206 0102 5B00     		lsls	r3, r3, #1
 207 0104 1800     		movs	r0, r3
 208 0106 FFF7FEFF 		bl	CyDelay
  71:main.c        ****     fillScreen(RA8875_MAGENTA);
 209              		.loc 1 71 0
 210 010a B34B     		ldr	r3, .L7+36
 211 010c 1800     		movs	r0, r3
 212 010e FFF7FEFF 		bl	fillScreen
  72:main.c        ****     CyDelay(500);
 213              		.loc 1 72 0
 214 0112 FA23     		movs	r3, #250
 215 0114 5B00     		lsls	r3, r3, #1
 216 0116 1800     		movs	r0, r3
 217 0118 FFF7FEFF 		bl	CyDelay
  73:main.c        ****     fillScreen(RA8875_BLACK);
 218              		.loc 1 73 0
 219 011c 0020     		movs	r0, #0
 220 011e FFF7FEFF 		bl	fillScreen
  74:main.c        ****     
  75:main.c        ****     CyDelay(3000);
 221              		.loc 1 75 0
 222 0122 AE4B     		ldr	r3, .L7+40
 223 0124 1800     		movs	r0, r3
 224 0126 FFF7FEFF 		bl	CyDelay
  76:main.c        ****     
  77:main.c        ****     // Try some GFX acceleration!
  78:main.c        ****       drawCircle(100, 100, 50, RA8875_BLACK);
 225              		.loc 1 78 0
 226 012a 0023     		movs	r3, #0
 227 012c 3222     		movs	r2, #50
 228 012e 6421     		movs	r1, #100
 229 0130 6420     		movs	r0, #100
 230 0132 FFF7FEFF 		bl	drawCircle
  79:main.c        ****       fillCircle(100, 100, 49, RA8875_GREEN);
 231              		.loc 1 79 0
 232 0136 FC23     		movs	r3, #252
 233 0138 DB00     		lsls	r3, r3, #3
 234 013a 3122     		movs	r2, #49
 235 013c 6421     		movs	r1, #100
 236 013e 6420     		movs	r0, #100
 237 0140 FFF7FEFF 		bl	fillCircle
  80:main.c        ****       
  81:main.c        ****       fillRect(11, 11, 398, 198, RA8875_BLUE);
 238              		.loc 1 81 0
 239 0144 C723     		movs	r3, #199
 240 0146 5A00     		lsls	r2, r3, #1
 241 0148 1F23     		movs	r3, #31
 242 014a 0093     		str	r3, [sp]
 243 014c C623     		movs	r3, #198
 244 014e 0B21     		movs	r1, #11
 245 0150 0B20     		movs	r0, #11
ARM GAS  C:\Users\megan\AppData\Local\Temp\ccxLMs0j.s 			page 7


 246 0152 FFF7FEFF 		bl	fillRect
  82:main.c        ****       drawRect(10, 10, 400, 200, RA8875_GREEN);
 247              		.loc 1 82 0
 248 0156 C823     		movs	r3, #200
 249 0158 5A00     		lsls	r2, r3, #1
 250 015a FC23     		movs	r3, #252
 251 015c DB00     		lsls	r3, r3, #3
 252 015e 0093     		str	r3, [sp]
 253 0160 C823     		movs	r3, #200
 254 0162 0A21     		movs	r1, #10
 255 0164 0A20     		movs	r0, #10
 256 0166 FFF7FEFF 		bl	drawRect
  83:main.c        ****       drawPixel(10,10,RA8875_BLACK);
 257              		.loc 1 83 0
 258 016a 0022     		movs	r2, #0
 259 016c 0A21     		movs	r1, #10
 260 016e 0A20     		movs	r0, #10
 261 0170 FFF7FEFF 		bl	drawPixel
  84:main.c        ****       drawPixel(11,11,RA8875_BLACK);
 262              		.loc 1 84 0
 263 0174 0022     		movs	r2, #0
 264 0176 0B21     		movs	r1, #11
 265 0178 0B20     		movs	r0, #11
 266 017a FFF7FEFF 		bl	drawPixel
  85:main.c        ****       drawLine(10, 10, 200, 100, RA8875_RED);
 267              		.loc 1 85 0
 268 017e F823     		movs	r3, #248
 269 0180 1B02     		lsls	r3, r3, #8
 270 0182 0093     		str	r3, [sp]
 271 0184 6423     		movs	r3, #100
 272 0186 C822     		movs	r2, #200
 273 0188 0A21     		movs	r1, #10
 274 018a 0A20     		movs	r0, #10
 275 018c FFF7FEFF 		bl	drawLine
  86:main.c        ****       drawTriangle(200, 15, 250, 100, 150, 125, RA8875_BLACK);
 276              		.loc 1 86 0
 277 0190 0023     		movs	r3, #0
 278 0192 0293     		str	r3, [sp, #8]
 279 0194 7D23     		movs	r3, #125
 280 0196 0193     		str	r3, [sp, #4]
 281 0198 9623     		movs	r3, #150
 282 019a 0093     		str	r3, [sp]
 283 019c 6423     		movs	r3, #100
 284 019e FA22     		movs	r2, #250
 285 01a0 0F21     		movs	r1, #15
 286 01a2 C820     		movs	r0, #200
 287 01a4 FFF7FEFF 		bl	drawTriangle
  87:main.c        ****       fillTriangle(200, 16, 249, 99, 151, 124, RA8875_YELLOW);
 288              		.loc 1 87 0
 289 01a8 894B     		ldr	r3, .L7+28
 290 01aa 0293     		str	r3, [sp, #8]
 291 01ac 7C23     		movs	r3, #124
 292 01ae 0193     		str	r3, [sp, #4]
 293 01b0 9723     		movs	r3, #151
 294 01b2 0093     		str	r3, [sp]
 295 01b4 6323     		movs	r3, #99
 296 01b6 F922     		movs	r2, #249
ARM GAS  C:\Users\megan\AppData\Local\Temp\ccxLMs0j.s 			page 8


 297 01b8 1021     		movs	r1, #16
 298 01ba C820     		movs	r0, #200
 299 01bc FFF7FEFF 		bl	fillTriangle
  88:main.c        ****       drawEllipse(300, 100, 100, 40, RA8875_BLACK);
 300              		.loc 1 88 0
 301 01c0 9623     		movs	r3, #150
 302 01c2 5800     		lsls	r0, r3, #1
 303 01c4 0023     		movs	r3, #0
 304 01c6 0093     		str	r3, [sp]
 305 01c8 2823     		movs	r3, #40
 306 01ca 6422     		movs	r2, #100
 307 01cc 6421     		movs	r1, #100
 308 01ce FFF7FEFF 		bl	drawEllipse
  89:main.c        ****       fillEllipse(300, 100, 98, 38, RA8875_GREEN);
 309              		.loc 1 89 0
 310 01d2 9623     		movs	r3, #150
 311 01d4 5800     		lsls	r0, r3, #1
 312 01d6 FC23     		movs	r3, #252
 313 01d8 DB00     		lsls	r3, r3, #3
 314 01da 0093     		str	r3, [sp]
 315 01dc 2623     		movs	r3, #38
 316 01de 6222     		movs	r2, #98
 317 01e0 6421     		movs	r1, #100
 318 01e2 FFF7FEFF 		bl	fillEllipse
  90:main.c        ****       // Argument 5 (curvePart) is a 2-bit value to control each corner (select 0, 1, 2, or 3)
  91:main.c        ****       drawCurve(50, 100, 80, 40, 2, RA8875_BLACK);  
 319              		.loc 1 91 0
 320 01e6 0023     		movs	r3, #0
 321 01e8 0193     		str	r3, [sp, #4]
 322 01ea 0223     		movs	r3, #2
 323 01ec 0093     		str	r3, [sp]
 324 01ee 2823     		movs	r3, #40
 325 01f0 5022     		movs	r2, #80
 326 01f2 6421     		movs	r1, #100
 327 01f4 3220     		movs	r0, #50
 328 01f6 FFF7FEFF 		bl	drawCurve
  92:main.c        ****       fillCurve(50, 100, 78, 38, 2, RA8875_WHITE);
 329              		.loc 1 92 0
 330 01fa 744B     		ldr	r3, .L7+24
 331 01fc 0193     		str	r3, [sp, #4]
 332 01fe 0223     		movs	r3, #2
 333 0200 0093     		str	r3, [sp]
 334 0202 2623     		movs	r3, #38
 335 0204 4E22     		movs	r2, #78
 336 0206 6421     		movs	r1, #100
 337 0208 3220     		movs	r0, #50
 338 020a FFF7FEFF 		bl	fillCurve
  93:main.c        ****         
  94:main.c        ****     //--- Welcome Screen ---//
  95:main.c        ****     CyDelay(10000);
 339              		.loc 1 95 0
 340 020e 744B     		ldr	r3, .L7+44
 341 0210 1800     		movs	r0, r3
 342 0212 FFF7FEFF 		bl	CyDelay
  96:main.c        ****     PWM1out(0);
 343              		.loc 1 96 0
 344 0216 0020     		movs	r0, #0
ARM GAS  C:\Users\megan\AppData\Local\Temp\ccxLMs0j.s 			page 9


 345 0218 FFF7FEFF 		bl	PWM1out
  97:main.c        ****     fillScreen(RA8875_WHITE);
 346              		.loc 1 97 0
 347 021c 6B4B     		ldr	r3, .L7+24
 348 021e 1800     		movs	r0, r3
 349 0220 FFF7FEFF 		bl	fillScreen
 350              	.LBB2:
  98:main.c        ****     
  99:main.c        ****     
 100:main.c        ****     for (int i = 0; i < 256; i++) {
 351              		.loc 1 100 0
 352 0224 0023     		movs	r3, #0
 353 0226 BB66     		str	r3, [r7, #104]
 354 0228 0AE0     		b	.L2
 355              	.L3:
 101:main.c        ****         PWM1out(i);
 356              		.loc 1 101 0 discriminator 3
 357 022a BB6E     		ldr	r3, [r7, #104]
 358 022c DBB2     		uxtb	r3, r3
 359 022e 1800     		movs	r0, r3
 360 0230 FFF7FEFF 		bl	PWM1out
 102:main.c        ****         CyDelay(5);
 361              		.loc 1 102 0 discriminator 3
 362 0234 0520     		movs	r0, #5
 363 0236 FFF7FEFF 		bl	CyDelay
 100:main.c        ****         PWM1out(i);
 364              		.loc 1 100 0 discriminator 3
 365 023a BB6E     		ldr	r3, [r7, #104]
 366 023c 0133     		adds	r3, r3, #1
 367 023e BB66     		str	r3, [r7, #104]
 368              	.L2:
 100:main.c        ****         PWM1out(i);
 369              		.loc 1 100 0 is_stmt 0 discriminator 1
 370 0240 BB6E     		ldr	r3, [r7, #104]
 371 0242 FF2B     		cmp	r3, #255
 372 0244 F1DD     		ble	.L3
 373              	.LBE2:
 103:main.c        ****     }
 104:main.c        **** 
 105:main.c        ****     textMode();
 374              		.loc 1 105 0 is_stmt 1
 375 0246 FFF7FEFF 		bl	textMode
 106:main.c        ****     fillRect(75,85,370,100,RA8875_RED);
 376              		.loc 1 106 0
 377 024a B923     		movs	r3, #185
 378 024c 5A00     		lsls	r2, r3, #1
 379 024e F823     		movs	r3, #248
 380 0250 1B02     		lsls	r3, r3, #8
 381 0252 0093     		str	r3, [sp]
 382 0254 6423     		movs	r3, #100
 383 0256 5521     		movs	r1, #85
 384 0258 4B20     		movs	r0, #75
 385 025a FFF7FEFF 		bl	fillRect
 107:main.c        ****     textSetCursor(100, 100);
 386              		.loc 1 107 0
 387 025e 6421     		movs	r1, #100
 388 0260 6420     		movs	r0, #100
ARM GAS  C:\Users\megan\AppData\Local\Temp\ccxLMs0j.s 			page 10


 389 0262 FFF7FEFF 		bl	textSetCursor
 108:main.c        ****     textEnlarge(1);
 390              		.loc 1 108 0
 391 0266 0120     		movs	r0, #1
 392 0268 FFF7FEFF 		bl	textEnlarge
 109:main.c        ****     textTransparent(RA8875_WHITE);
 393              		.loc 1 109 0
 394 026c 574B     		ldr	r3, .L7+24
 395 026e 1800     		movs	r0, r3
 396 0270 FFF7FEFF 		bl	textTransparent
 110:main.c        ****     textWrite(welcome1,strlen(welcome1)); 
 397              		.loc 1 110 0
 398 0274 5823     		movs	r3, #88
 399 0276 FB18     		adds	r3, r7, r3
 400 0278 1800     		movs	r0, r3
 401 027a FFF7FEFF 		bl	strlen
 402 027e 0300     		movs	r3, r0
 403 0280 9AB2     		uxth	r2, r3
 404 0282 5823     		movs	r3, #88
 405 0284 FB18     		adds	r3, r7, r3
 406 0286 1100     		movs	r1, r2
 407 0288 1800     		movs	r0, r3
 408 028a FFF7FEFF 		bl	textWrite
 111:main.c        ****     
 112:main.c        ****     textEnlarge(0);
 409              		.loc 1 112 0
 410 028e 0020     		movs	r0, #0
 411 0290 FFF7FEFF 		bl	textEnlarge
 113:main.c        ****     textSetCursor(100, 200);
 412              		.loc 1 113 0
 413 0294 C821     		movs	r1, #200
 414 0296 6420     		movs	r0, #100
 415 0298 FFF7FEFF 		bl	textSetCursor
 114:main.c        ****     textTransparent(RA8875_BLACK);
 416              		.loc 1 114 0
 417 029c 0020     		movs	r0, #0
 418 029e FFF7FEFF 		bl	textTransparent
 115:main.c        ****     textWrite(welcome2,strlen(welcome2)); 
 419              		.loc 1 115 0
 420 02a2 4C23     		movs	r3, #76
 421 02a4 FB18     		adds	r3, r7, r3
 422 02a6 1800     		movs	r0, r3
 423 02a8 FFF7FEFF 		bl	strlen
 424 02ac 0300     		movs	r3, r0
 425 02ae 9AB2     		uxth	r2, r3
 426 02b0 4C23     		movs	r3, #76
 427 02b2 FB18     		adds	r3, r7, r3
 428 02b4 1100     		movs	r1, r2
 429 02b6 1800     		movs	r0, r3
 430 02b8 FFF7FEFF 		bl	textWrite
 116:main.c        ****     textSetCursor(100, 250);
 431              		.loc 1 116 0
 432 02bc FA21     		movs	r1, #250
 433 02be 6420     		movs	r0, #100
 434 02c0 FFF7FEFF 		bl	textSetCursor
 117:main.c        ****     textWrite(welcome3,strlen(welcome3)); 
 435              		.loc 1 117 0
ARM GAS  C:\Users\megan\AppData\Local\Temp\ccxLMs0j.s 			page 11


 436 02c4 4023     		movs	r3, #64
 437 02c6 FB18     		adds	r3, r7, r3
 438 02c8 1800     		movs	r0, r3
 439 02ca FFF7FEFF 		bl	strlen
 440 02ce 0300     		movs	r3, r0
 441 02d0 9AB2     		uxth	r2, r3
 442 02d2 4023     		movs	r3, #64
 443 02d4 FB18     		adds	r3, r7, r3
 444 02d6 1100     		movs	r1, r2
 445 02d8 1800     		movs	r0, r3
 446 02da FFF7FEFF 		bl	textWrite
 118:main.c        ****     
 119:main.c        ****     textSetCursor(100, 350);
 447              		.loc 1 119 0
 448 02de AF23     		movs	r3, #175
 449 02e0 5B00     		lsls	r3, r3, #1
 450 02e2 1900     		movs	r1, r3
 451 02e4 6420     		movs	r0, #100
 452 02e6 FFF7FEFF 		bl	textSetCursor
 120:main.c        ****     textTransparent(RA8875_BLUE);
 453              		.loc 1 120 0
 454 02ea 1F20     		movs	r0, #31
 455 02ec FFF7FEFF 		bl	textTransparent
 121:main.c        ****     textWrite(ble,strlen(ble));    
 456              		.loc 1 121 0
 457 02f0 3423     		movs	r3, #52
 458 02f2 FB18     		adds	r3, r7, r3
 459 02f4 1800     		movs	r0, r3
 460 02f6 FFF7FEFF 		bl	strlen
 461 02fa 0300     		movs	r3, r0
 462 02fc 9AB2     		uxth	r2, r3
 463 02fe 3423     		movs	r3, #52
 464 0300 FB18     		adds	r3, r7, r3
 465 0302 1100     		movs	r1, r2
 466 0304 1800     		movs	r0, r3
 467 0306 FFF7FEFF 		bl	textWrite
 122:main.c        ****     
 123:main.c        ****     //CyDelay(1000);
 124:main.c        ****     touchRead(&x, &y);
 468              		.loc 1 124 0
 469 030a 3023     		movs	r3, #48
 470 030c FA18     		adds	r2, r7, r3
 471 030e 3223     		movs	r3, #50
 472 0310 FB18     		adds	r3, r7, r3
 473 0312 1100     		movs	r1, r2
 474 0314 1800     		movs	r0, r3
 475 0316 FFF7FEFF 		bl	touchRead
 125:main.c        ****     CyDelay(10);
 476              		.loc 1 125 0
 477 031a 0A20     		movs	r0, #10
 478 031c FFF7FEFF 		bl	CyDelay
 126:main.c        ****     while ( waiting )  {
 479              		.loc 1 126 0
 480 0320 1AE0     		b	.L4
 481              	.L5:
 127:main.c        ****         //if (LCD_int_Read() == 0u) {
 128:main.c        ****             if ( touched() ) {
ARM GAS  C:\Users\megan\AppData\Local\Temp\ccxLMs0j.s 			page 12


 482              		.loc 1 128 0
 483 0322 FFF7FEFF 		bl	touched
 484 0326 0300     		movs	r3, r0
 485 0328 1900     		movs	r1, r3
 486 032a 6F23     		movs	r3, #111
 487 032c FB18     		adds	r3, r7, r3
 488 032e 6F22     		movs	r2, #111
 489 0330 BA18     		adds	r2, r7, r2
 490 0332 1278     		ldrb	r2, [r2]
 491 0334 1A70     		strb	r2, [r3]
 492 0336 0029     		cmp	r1, #0
 493 0338 0ED0     		beq	.L4
 129:main.c        ****                 LED_GREEN_Write(0u);
 494              		.loc 1 129 0
 495 033a 0020     		movs	r0, #0
 496 033c FFF7FEFF 		bl	LED_GREEN_Write
 130:main.c        ****                 touchRead(&x, &y);
 497              		.loc 1 130 0
 498 0340 3023     		movs	r3, #48
 499 0342 FA18     		adds	r2, r7, r3
 500 0344 3223     		movs	r3, #50
 501 0346 FB18     		adds	r3, r7, r3
 502 0348 1100     		movs	r1, r2
 503 034a 1800     		movs	r0, r3
 504 034c FFF7FEFF 		bl	touchRead
 131:main.c        ****                 waiting = false;
 505              		.loc 1 131 0
 506 0350 6F23     		movs	r3, #111
 507 0352 FB18     		adds	r3, r7, r3
 508 0354 0022     		movs	r2, #0
 509 0356 1A70     		strb	r2, [r3]
 510              	.L4:
 126:main.c        ****         //if (LCD_int_Read() == 0u) {
 511              		.loc 1 126 0
 512 0358 6F23     		movs	r3, #111
 513 035a FB18     		adds	r3, r7, r3
 514 035c 1B78     		ldrb	r3, [r3]
 515 035e 002B     		cmp	r3, #0
 516 0360 DFD1     		bne	.L5
 132:main.c        ****             }
 133:main.c        ****         //}
 134:main.c        ****     }
 135:main.c        ****     
 136:main.c        ****     
 137:main.c        ****     
 138:main.c        ****     //----- Temp Screen -----//
 139:main.c        ****     
 140:main.c        ****     
 141:main.c        ****     
 142:main.c        ****     //------ BLE Setup ------//
 143:main.c        ****     
 144:main.c        ****     // Start
 145:main.c        ****     apiResult = CyBle_Start(StackEventHandler);
 517              		.loc 1 145 0
 518 0362 6623     		movs	r3, #102
 519 0364 FC18     		adds	r4, r7, r3
 520 0366 1F4B     		ldr	r3, .L7+48
ARM GAS  C:\Users\megan\AppData\Local\Temp\ccxLMs0j.s 			page 13


 521 0368 1800     		movs	r0, r3
 522 036a FFF7FEFF 		bl	CyBle_Start
 523 036e 0300     		movs	r3, r0
 524 0370 2380     		strh	r3, [r4]
 146:main.c        ****     if(apiResult != 0x00u)
 147:main.c        ****     {
 148:main.c        ****         /* BLE stack initialization failed, check your configuration */
 149:main.c        **** //        fillScreen(RA8875_RED);
 150:main.c        **** //        textWrite(BLE_START_ERROR, strlen(BLE_START_ERROR));
 151:main.c        ****     }
 152:main.c        ****     
 153:main.c        ****     // Advertise
 154:main.c        ****     CyBle_ProcessEvents();
 525              		.loc 1 154 0
 526 0372 FFF7FEFF 		bl	CyBle_ProcessEvents
 155:main.c        ****     apiResult = CyBle_GappStartAdvertisement(0x00u);
 527              		.loc 1 155 0
 528 0376 6623     		movs	r3, #102
 529 0378 FC18     		adds	r4, r7, r3
 530 037a 0020     		movs	r0, #0
 531 037c FFF7FEFF 		bl	CyBle_GappStartAdvertisement
 532 0380 0300     		movs	r3, r0
 533 0382 2380     		strh	r3, [r4]
 156:main.c        ****     if (apiResult == CYBLE_ERROR_OK) {
 157:main.c        **** //        textWrite(STR_CYBLE_ERROR_OK, strlen(STR_CYBLE_ERROR_OK));
 158:main.c        ****     }
 159:main.c        ****     
 160:main.c        ****   
 161:main.c        **** 
 162:main.c        ****     
 163:main.c        ****     
 164:main.c        **** 
 165:main.c        ****     CyBle_Start( StackEventHandler );
 534              		.loc 1 165 0
 535 0384 174B     		ldr	r3, .L7+48
 536 0386 1800     		movs	r0, r3
 537 0388 FFF7FEFF 		bl	CyBle_Start
 538              	.L6:
 166:main.c        ****     for(;;)
 167:main.c        ****     {
 168:main.c        ****         /* Place your application code here */
 169:main.c        ****         LED_BLUE_Write(0u);  
 539              		.loc 1 169 0 discriminator 1
 540 038c 0020     		movs	r0, #0
 541 038e FFF7FEFF 		bl	LED_BLUE_Write
 170:main.c        ****         CyDelay(1000);
 542              		.loc 1 170 0 discriminator 1
 543 0392 FA23     		movs	r3, #250
 544 0394 9B00     		lsls	r3, r3, #2
 545 0396 1800     		movs	r0, r3
 546 0398 FFF7FEFF 		bl	CyDelay
 171:main.c        ****         //for(int i=0;i<1000;i++);
 172:main.c        ****         LED_BLUE_Write(1u);
 547              		.loc 1 172 0 discriminator 1
 548 039c 0120     		movs	r0, #1
 549 039e FFF7FEFF 		bl	LED_BLUE_Write
 173:main.c        ****         //for(int i=0;i<1000;i++);
ARM GAS  C:\Users\megan\AppData\Local\Temp\ccxLMs0j.s 			page 14


 174:main.c        ****         CyDelay(1000);
 550              		.loc 1 174 0 discriminator 1
 551 03a2 FA23     		movs	r3, #250
 552 03a4 9B00     		lsls	r3, r3, #2
 553 03a6 1800     		movs	r0, r3
 554 03a8 FFF7FEFF 		bl	CyDelay
 175:main.c        ****         
 176:main.c        ****         CyBle_ProcessEvents();
 555              		.loc 1 176 0 discriminator 1
 556 03ac FFF7FEFF 		bl	CyBle_ProcessEvents
 177:main.c        ****     }
 557              		.loc 1 177 0 discriminator 1
 558 03b0 ECE7     		b	.L6
 559              	.L8:
 560 03b2 C046     		.align	2
 561              	.L7:
 562 03b4 00000000 		.word	.LC0
 563 03b8 0C000000 		.word	.LC2
 564 03bc 18000000 		.word	.LC4
 565 03c0 24000000 		.word	.LC6
 566 03c4 30000000 		.word	.LC8
 567 03c8 44000000 		.word	.LC10
 568 03cc FFFF0000 		.word	65535
 569 03d0 E0FF0000 		.word	65504
 570 03d4 FF070000 		.word	2047
 571 03d8 1FF80000 		.word	63519
 572 03dc B80B0000 		.word	3000
 573 03e0 10270000 		.word	10000
 574 03e4 00000000 		.word	StackEventHandler
 575              		.cfi_endproc
 576              	.LFE35:
 577              		.size	main, .-main
 578              		.section	.text.StackEventHandler,"ax",%progbits
 579              		.align	2
 580              		.global	StackEventHandler
 581              		.code	16
 582              		.thumb_func
 583              		.type	StackEventHandler, %function
 584              	StackEventHandler:
 585              	.LFB36:
 178:main.c        **** }
 179:main.c        **** 
 180:main.c        **** 
 181:main.c        **** void StackEventHandler( uint32 eventCode, void *eventParam )
 182:main.c        **** {
 586              		.loc 1 182 0
 587              		.cfi_startproc
 588              		@ args = 0, pretend = 0, frame = 8
 589              		@ frame_needed = 1, uses_anonymous_args = 0
 590 0000 80B5     		push	{r7, lr}
 591              		.cfi_def_cfa_offset 8
 592              		.cfi_offset 7, -8
 593              		.cfi_offset 14, -4
 594 0002 82B0     		sub	sp, sp, #8
 595              		.cfi_def_cfa_offset 16
 596 0004 00AF     		add	r7, sp, #0
 597              		.cfi_def_cfa_register 7
ARM GAS  C:\Users\megan\AppData\Local\Temp\ccxLMs0j.s 			page 15


 598 0006 7860     		str	r0, [r7, #4]
 599 0008 3960     		str	r1, [r7]
 183:main.c        ****     switch( eventCode )
 600              		.loc 1 183 0
 601 000a 7B68     		ldr	r3, [r7, #4]
 602 000c 012B     		cmp	r3, #1
 603 000e 00D0     		beq	.L11
 184:main.c        ****     {
 185:main.c        ****         /* Generic events */
 186:main.c        **** 
 187:main.c        ****         case CYBLE_EVT_STACK_ON:
 188:main.c        ****             /* Configure the Link Layer to automatically switch PA
 189:main.c        ****              * control pin P3[2] and LNA control pin P3[3] */
 190:main.c        ****             CY_SET_XTND_REG32((void CYFAR *)(CYREG_BLE_BLESS_RF_CONFIG), 0x0331);
 191:main.c        ****             CY_SET_XTND_REG32((void CYFAR *)(CYREG_SRSS_TST_DDFT_CTRL), 0x80000302);
 192:main.c        ****             /* CyBle_GappStartAdvertisement( CYBLE_ADVERTISING_FAST ); */
 193:main.c        ****         break;
 194:main.c        ****             
 195:main.c        ****         /* Add additional events as required */    
 196:main.c        ****             
 197:main.c        ****         /* default catch-all case */
 198:main.c        **** 
 199:main.c        ****         default:
 200:main.c        ****         break;    
 604              		.loc 1 200 0
 605 0010 06E0     		b	.L12
 606              	.L11:
 190:main.c        ****             CY_SET_XTND_REG32((void CYFAR *)(CYREG_SRSS_TST_DDFT_CTRL), 0x80000302);
 607              		.loc 1 190 0
 608 0012 054B     		ldr	r3, .L13
 609 0014 054A     		ldr	r2, .L13+4
 610 0016 1A60     		str	r2, [r3]
 191:main.c        ****             /* CyBle_GappStartAdvertisement( CYBLE_ADVERTISING_FAST ); */
 611              		.loc 1 191 0
 612 0018 054B     		ldr	r3, .L13+8
 613 001a 064A     		ldr	r2, .L13+12
 614 001c 1A60     		str	r2, [r3]
 193:main.c        ****             
 615              		.loc 1 193 0
 616 001e C046     		nop
 617              	.L12:
 201:main.c        ****     }
 202:main.c        **** }    
 618              		.loc 1 202 0
 619 0020 C046     		nop
 620 0022 BD46     		mov	sp, r7
 621 0024 02B0     		add	sp, sp, #8
 622              		@ sp needed
 623 0026 80BD     		pop	{r7, pc}
 624              	.L14:
 625              		.align	2
 626              	.L13:
 627 0028 60F02E40 		.word	1076818016
 628 002c 31030000 		.word	817
 629 0030 08000340 		.word	1073938440
 630 0034 02030080 		.word	-2147482878
 631              		.cfi_endproc
ARM GAS  C:\Users\megan\AppData\Local\Temp\ccxLMs0j.s 			page 16


 632              	.LFE36:
 633              		.size	StackEventHandler, .-StackEventHandler
 634              		.text
 635              	.Letext0:
 636              		.file 2 "c:\\program files (x86)\\cypress\\psoc creator\\4.1\\psoc creator\\import\\gnu\\arm\\5.4.
 637              		.file 3 "c:\\program files (x86)\\cypress\\psoc creator\\4.1\\psoc creator\\import\\gnu\\arm\\5.4.
 638              		.file 4 "Generated_Source\\PSoC4/cytypes.h"
 639              		.file 5 "Generated_Source\\PSoC4/BLE_1_Stack.h"
 640              		.file 6 "Generated_Source\\PSoC4/BLE_1_eventHandler.h"
 641              		.file 7 "./RA8875.h"