ARM GAS  C:\Users\megan\AppData\Local\Temp\ccVElWjj.s 			page 1


   1              		.syntax unified
   2              		.cpu cortex-m0
   3              		.fpu softvfp
   4              		.eabi_attribute 20, 1
   5              		.eabi_attribute 21, 1
   6              		.eabi_attribute 23, 3
   7              		.eabi_attribute 24, 1
   8              		.eabi_attribute 25, 1
   9              		.eabi_attribute 26, 1
  10              		.eabi_attribute 30, 6
  11              		.eabi_attribute 34, 0
  12              		.eabi_attribute 18, 4
  13              		.thumb
  14              		.syntax unified
  15              		.file	"gfx_mk.c"
  16              		.text
  17              	.Ltext0:
  18              		.cfi_sections	.debug_frame
  19              		.bss
  20              	gfxInitDone:
  21 0000 00       		.space	1
  22              		.section	.text.gfxInit,"ax",%progbits
  23              		.align	2
  24              		.global	gfxInit
  25              		.code	16
  26              		.thumb_func
  27              		.type	gfxInit, %function
  28              	gfxInit:
  29              	.LFB0:
  30              		.file 1 "..\\..\\ugfx_2.7\\ugfx_2.7\\src\\gfx.c"
   1:..\..\ugfx_2.7\ugfx_2.7\src/gfx.c **** /*
   2:..\..\ugfx_2.7\ugfx_2.7\src/gfx.c ****  * This file is subject to the terms of the GFX License. If a copy of
   3:..\..\ugfx_2.7\ugfx_2.7\src/gfx.c ****  * the license was not distributed with this file, you can obtain one at:
   4:..\..\ugfx_2.7\ugfx_2.7\src/gfx.c ****  *
   5:..\..\ugfx_2.7\ugfx_2.7\src/gfx.c ****  *              http://ugfx.org/license.html
   6:..\..\ugfx_2.7\ugfx_2.7\src/gfx.c ****  */
   7:..\..\ugfx_2.7\ugfx_2.7\src/gfx.c **** 
   8:..\..\ugfx_2.7\ugfx_2.7\src/gfx.c **** /**
   9:..\..\ugfx_2.7\ugfx_2.7\src/gfx.c ****  * @file    src/gfx.c
  10:..\..\ugfx_2.7\ugfx_2.7\src/gfx.c ****  * @brief   GFX common routines.
  11:..\..\ugfx_2.7\ugfx_2.7\src/gfx.c ****  */
  12:..\..\ugfx_2.7\ugfx_2.7\src/gfx.c **** 
  13:..\..\ugfx_2.7\ugfx_2.7\src/gfx.c **** /* Display various warnings from gfx_rules.h */
  14:..\..\ugfx_2.7\ugfx_2.7\src/gfx.c **** #define GFX_DISPLAY_RULE_WARNINGS	TRUE
  15:..\..\ugfx_2.7\ugfx_2.7\src/gfx.c **** 
  16:..\..\ugfx_2.7\ugfx_2.7\src/gfx.c **** #include "../gfx.h"
  17:..\..\ugfx_2.7\ugfx_2.7\src/gfx.c **** 
  18:..\..\ugfx_2.7\ugfx_2.7\src/gfx.c **** static bool_t gfxInitDone = FALSE;
  19:..\..\ugfx_2.7\ugfx_2.7\src/gfx.c **** 
  20:..\..\ugfx_2.7\ugfx_2.7\src/gfx.c **** /* These init functions are defined by each module but not published */
  21:..\..\ugfx_2.7\ugfx_2.7\src/gfx.c **** extern void _gosInit(void);
  22:..\..\ugfx_2.7\ugfx_2.7\src/gfx.c **** extern void _gosDeinit(void);
  23:..\..\ugfx_2.7\ugfx_2.7\src/gfx.c **** #ifdef GFX_OS_PRE_INIT_FUNCTION
  24:..\..\ugfx_2.7\ugfx_2.7\src/gfx.c **** 		extern void GFX_OS_PRE_INIT_FUNCTION(void);
  25:..\..\ugfx_2.7\ugfx_2.7\src/gfx.c **** #endif
  26:..\..\ugfx_2.7\ugfx_2.7\src/gfx.c **** #ifdef GFX_OS_EXTRA_INIT_FUNCTION
  27:..\..\ugfx_2.7\ugfx_2.7\src/gfx.c **** 		extern void GFX_OS_EXTRA_INIT_FUNCTION(void);
ARM GAS  C:\Users\megan\AppData\Local\Temp\ccVElWjj.s 			page 2


  28:..\..\ugfx_2.7\ugfx_2.7\src/gfx.c **** #endif
  29:..\..\ugfx_2.7\ugfx_2.7\src/gfx.c **** #ifdef GFX_OS_EXTRA_DEINIT_FUNCTION
  30:..\..\ugfx_2.7\ugfx_2.7\src/gfx.c **** 		extern void GFX_OS_EXTRA_DEINIT_FUNCTION(void);
  31:..\..\ugfx_2.7\ugfx_2.7\src/gfx.c **** #endif
  32:..\..\ugfx_2.7\ugfx_2.7\src/gfx.c **** #if GFX_USE_GDRIVER
  33:..\..\ugfx_2.7\ugfx_2.7\src/gfx.c **** 	extern void _gdriverInit(void);
  34:..\..\ugfx_2.7\ugfx_2.7\src/gfx.c **** 	extern void _gdriverDeinit(void);
  35:..\..\ugfx_2.7\ugfx_2.7\src/gfx.c **** #endif
  36:..\..\ugfx_2.7\ugfx_2.7\src/gfx.c **** #if GFX_USE_GFILE
  37:..\..\ugfx_2.7\ugfx_2.7\src/gfx.c **** 	extern void _gfileInit(void);
  38:..\..\ugfx_2.7\ugfx_2.7\src/gfx.c **** 	extern void _gfileDeinit(void);
  39:..\..\ugfx_2.7\ugfx_2.7\src/gfx.c **** #endif
  40:..\..\ugfx_2.7\ugfx_2.7\src/gfx.c **** #if GFX_USE_GDISP
  41:..\..\ugfx_2.7\ugfx_2.7\src/gfx.c **** 	extern void _gdispInit(void);
  42:..\..\ugfx_2.7\ugfx_2.7\src/gfx.c **** 	extern void _gdispDeinit(void);
  43:..\..\ugfx_2.7\ugfx_2.7\src/gfx.c **** #endif
  44:..\..\ugfx_2.7\ugfx_2.7\src/gfx.c **** #if GFX_USE_GWIN
  45:..\..\ugfx_2.7\ugfx_2.7\src/gfx.c **** 	extern void _gwinInit(void);
  46:..\..\ugfx_2.7\ugfx_2.7\src/gfx.c **** 	extern void _gwinDeinit(void);
  47:..\..\ugfx_2.7\ugfx_2.7\src/gfx.c **** #endif
  48:..\..\ugfx_2.7\ugfx_2.7\src/gfx.c **** #if GFX_USE_GEVENT
  49:..\..\ugfx_2.7\ugfx_2.7\src/gfx.c **** 	extern void _geventInit(void);
  50:..\..\ugfx_2.7\ugfx_2.7\src/gfx.c **** 	extern void _geventDeinit(void);
  51:..\..\ugfx_2.7\ugfx_2.7\src/gfx.c **** #endif
  52:..\..\ugfx_2.7\ugfx_2.7\src/gfx.c **** #if GFX_USE_GTIMER
  53:..\..\ugfx_2.7\ugfx_2.7\src/gfx.c **** 	extern void _gtimerInit(void);
  54:..\..\ugfx_2.7\ugfx_2.7\src/gfx.c **** 	extern void _gtimerDeinit(void);
  55:..\..\ugfx_2.7\ugfx_2.7\src/gfx.c **** #endif
  56:..\..\ugfx_2.7\ugfx_2.7\src/gfx.c **** #if GFX_USE_GINPUT
  57:..\..\ugfx_2.7\ugfx_2.7\src/gfx.c **** 	extern void _ginputInit(void);
  58:..\..\ugfx_2.7\ugfx_2.7\src/gfx.c **** 	extern void _ginputDeinit(void);
  59:..\..\ugfx_2.7\ugfx_2.7\src/gfx.c **** #endif
  60:..\..\ugfx_2.7\ugfx_2.7\src/gfx.c **** #if GFX_USE_GADC
  61:..\..\ugfx_2.7\ugfx_2.7\src/gfx.c **** 	extern void _gadcInit(void);
  62:..\..\ugfx_2.7\ugfx_2.7\src/gfx.c **** 	extern void _gadcDeinit(void);
  63:..\..\ugfx_2.7\ugfx_2.7\src/gfx.c **** #endif
  64:..\..\ugfx_2.7\ugfx_2.7\src/gfx.c **** #if GFX_USE_GAUDIO
  65:..\..\ugfx_2.7\ugfx_2.7\src/gfx.c **** 	extern void _gaudioInit(void);
  66:..\..\ugfx_2.7\ugfx_2.7\src/gfx.c **** 	extern void _gaudioDeinit(void);
  67:..\..\ugfx_2.7\ugfx_2.7\src/gfx.c **** #endif
  68:..\..\ugfx_2.7\ugfx_2.7\src/gfx.c **** #if GFX_USE_GQUEUE
  69:..\..\ugfx_2.7\ugfx_2.7\src/gfx.c **** 	extern void _gqueueInit(void);
  70:..\..\ugfx_2.7\ugfx_2.7\src/gfx.c **** 	extern void _gqueueDeinit(void);
  71:..\..\ugfx_2.7\ugfx_2.7\src/gfx.c **** #endif
  72:..\..\ugfx_2.7\ugfx_2.7\src/gfx.c **** #if GFX_USE_GMISC
  73:..\..\ugfx_2.7\ugfx_2.7\src/gfx.c **** 	extern void _gmiscInit(void);
  74:..\..\ugfx_2.7\ugfx_2.7\src/gfx.c **** 	extern void _gmiscDeinit(void);
  75:..\..\ugfx_2.7\ugfx_2.7\src/gfx.c **** #endif
  76:..\..\ugfx_2.7\ugfx_2.7\src/gfx.c **** #if GFX_USE_GTRANS
  77:..\..\ugfx_2.7\ugfx_2.7\src/gfx.c **** 	extern void _gtransInit(void);
  78:..\..\ugfx_2.7\ugfx_2.7\src/gfx.c **** 	extern void _gtransDeinit(void);
  79:..\..\ugfx_2.7\ugfx_2.7\src/gfx.c **** #endif
  80:..\..\ugfx_2.7\ugfx_2.7\src/gfx.c **** 
  81:..\..\ugfx_2.7\ugfx_2.7\src/gfx.c **** void gfxInit(void)
  82:..\..\ugfx_2.7\ugfx_2.7\src/gfx.c **** {
  31              		.loc 1 82 0
  32              		.cfi_startproc
ARM GAS  C:\Users\megan\AppData\Local\Temp\ccVElWjj.s 			page 3


  33              		@ args = 0, pretend = 0, frame = 0
  34              		@ frame_needed = 1, uses_anonymous_args = 0
  35 0000 80B5     		push	{r7, lr}
  36              		.cfi_def_cfa_offset 8
  37              		.cfi_offset 7, -8
  38              		.cfi_offset 14, -4
  39 0002 00AF     		add	r7, sp, #0
  40              		.cfi_def_cfa_register 7
  83:..\..\ugfx_2.7\ugfx_2.7\src/gfx.c **** 	/* Ensure we only initialise once */
  84:..\..\ugfx_2.7\ugfx_2.7\src/gfx.c **** 	if (gfxInitDone)
  41              		.loc 1 84 0
  42 0004 084B     		ldr	r3, .L5
  43 0006 1B78     		ldrb	r3, [r3]
  44 0008 002B     		cmp	r3, #0
  45 000a 09D1     		bne	.L4
  85:..\..\ugfx_2.7\ugfx_2.7\src/gfx.c **** 		return;
  86:..\..\ugfx_2.7\ugfx_2.7\src/gfx.c **** 	gfxInitDone = TRUE;
  46              		.loc 1 86 0
  47 000c 064B     		ldr	r3, .L5
  48 000e FF22     		movs	r2, #255
  49 0010 1A70     		strb	r2, [r3]
  87:..\..\ugfx_2.7\ugfx_2.7\src/gfx.c **** 
  88:..\..\ugfx_2.7\ugfx_2.7\src/gfx.c **** 	// These must be initialised in the order of their dependancies
  89:..\..\ugfx_2.7\ugfx_2.7\src/gfx.c **** 
  90:..\..\ugfx_2.7\ugfx_2.7\src/gfx.c **** 	#ifdef GFX_OS_PRE_INIT_FUNCTION
  91:..\..\ugfx_2.7\ugfx_2.7\src/gfx.c **** 		GFX_OS_PRE_INIT_FUNCTION();
  92:..\..\ugfx_2.7\ugfx_2.7\src/gfx.c **** 	#endif
  93:..\..\ugfx_2.7\ugfx_2.7\src/gfx.c **** 	_gosInit();
  50              		.loc 1 93 0
  51 0012 FFF7FEFF 		bl	_gosInit
  94:..\..\ugfx_2.7\ugfx_2.7\src/gfx.c **** 	#ifdef GFX_OS_EXTRA_INIT_FUNCTION
  95:..\..\ugfx_2.7\ugfx_2.7\src/gfx.c **** 		GFX_OS_EXTRA_INIT_FUNCTION();
  96:..\..\ugfx_2.7\ugfx_2.7\src/gfx.c **** 	#endif
  97:..\..\ugfx_2.7\ugfx_2.7\src/gfx.c **** 	#if GFX_USE_GQUEUE
  98:..\..\ugfx_2.7\ugfx_2.7\src/gfx.c **** 		_gqueueInit();
  99:..\..\ugfx_2.7\ugfx_2.7\src/gfx.c **** 	#endif
 100:..\..\ugfx_2.7\ugfx_2.7\src/gfx.c **** 	#if GFX_USE_GMISC
 101:..\..\ugfx_2.7\ugfx_2.7\src/gfx.c **** 		_gmiscInit();
 102:..\..\ugfx_2.7\ugfx_2.7\src/gfx.c **** 	#endif
 103:..\..\ugfx_2.7\ugfx_2.7\src/gfx.c **** 	#if GFX_USE_GTRANS
 104:..\..\ugfx_2.7\ugfx_2.7\src/gfx.c **** 		_gtransInit();
 105:..\..\ugfx_2.7\ugfx_2.7\src/gfx.c **** 	#endif
 106:..\..\ugfx_2.7\ugfx_2.7\src/gfx.c **** 	#if GFX_USE_GEVENT
 107:..\..\ugfx_2.7\ugfx_2.7\src/gfx.c **** 		_geventInit();
 108:..\..\ugfx_2.7\ugfx_2.7\src/gfx.c **** 	#endif
 109:..\..\ugfx_2.7\ugfx_2.7\src/gfx.c **** 	#if GFX_USE_GTIMER
 110:..\..\ugfx_2.7\ugfx_2.7\src/gfx.c **** 		_gtimerInit();
 111:..\..\ugfx_2.7\ugfx_2.7\src/gfx.c **** 	#endif
 112:..\..\ugfx_2.7\ugfx_2.7\src/gfx.c **** 	#if GFX_USE_GDRIVER
 113:..\..\ugfx_2.7\ugfx_2.7\src/gfx.c **** 		_gdriverInit();
  52              		.loc 1 113 0
  53 0016 FFF7FEFF 		bl	_gdriverInit
 114:..\..\ugfx_2.7\ugfx_2.7\src/gfx.c **** 	#endif
 115:..\..\ugfx_2.7\ugfx_2.7\src/gfx.c **** 	#if GFX_USE_GFILE
 116:..\..\ugfx_2.7\ugfx_2.7\src/gfx.c **** 		_gfileInit();
 117:..\..\ugfx_2.7\ugfx_2.7\src/gfx.c **** 	#endif
 118:..\..\ugfx_2.7\ugfx_2.7\src/gfx.c **** 	#if GFX_USE_GDISP
ARM GAS  C:\Users\megan\AppData\Local\Temp\ccVElWjj.s 			page 4


 119:..\..\ugfx_2.7\ugfx_2.7\src/gfx.c **** 		_gdispInit();
  54              		.loc 1 119 0
  55 001a FFF7FEFF 		bl	_gdispInit
  56 001e 00E0     		b	.L1
  57              	.L4:
  85:..\..\ugfx_2.7\ugfx_2.7\src/gfx.c **** 	gfxInitDone = TRUE;
  58              		.loc 1 85 0
  59 0020 C046     		nop
  60              	.L1:
 120:..\..\ugfx_2.7\ugfx_2.7\src/gfx.c **** 	#endif
 121:..\..\ugfx_2.7\ugfx_2.7\src/gfx.c **** 	#if GFX_USE_GINPUT
 122:..\..\ugfx_2.7\ugfx_2.7\src/gfx.c **** 		_ginputInit();
 123:..\..\ugfx_2.7\ugfx_2.7\src/gfx.c **** 	#endif
 124:..\..\ugfx_2.7\ugfx_2.7\src/gfx.c **** 	#if GFX_USE_GADC
 125:..\..\ugfx_2.7\ugfx_2.7\src/gfx.c **** 		_gadcInit();
 126:..\..\ugfx_2.7\ugfx_2.7\src/gfx.c **** 	#endif
 127:..\..\ugfx_2.7\ugfx_2.7\src/gfx.c **** 	#if GFX_USE_GAUDIO
 128:..\..\ugfx_2.7\ugfx_2.7\src/gfx.c **** 		_gaudioInit();
 129:..\..\ugfx_2.7\ugfx_2.7\src/gfx.c **** 	#endif
 130:..\..\ugfx_2.7\ugfx_2.7\src/gfx.c **** 	#if GFX_USE_GWIN
 131:..\..\ugfx_2.7\ugfx_2.7\src/gfx.c **** 		_gwinInit();
 132:..\..\ugfx_2.7\ugfx_2.7\src/gfx.c **** 	#endif
 133:..\..\ugfx_2.7\ugfx_2.7\src/gfx.c **** }
  61              		.loc 1 133 0
  62 0022 BD46     		mov	sp, r7
  63              		@ sp needed
  64 0024 80BD     		pop	{r7, pc}
  65              	.L6:
  66 0026 C046     		.align	2
  67              	.L5:
  68 0028 00000000 		.word	gfxInitDone
  69              		.cfi_endproc
  70              	.LFE0:
  71              		.size	gfxInit, .-gfxInit
  72              		.section	.text.gfxDeinit,"ax",%progbits
  73              		.align	2
  74              		.global	gfxDeinit
  75              		.code	16
  76              		.thumb_func
  77              		.type	gfxDeinit, %function
  78              	gfxDeinit:
  79              	.LFB1:
 134:..\..\ugfx_2.7\ugfx_2.7\src/gfx.c **** 
 135:..\..\ugfx_2.7\ugfx_2.7\src/gfx.c **** void gfxDeinit(void)
 136:..\..\ugfx_2.7\ugfx_2.7\src/gfx.c **** {
  80              		.loc 1 136 0
  81              		.cfi_startproc
  82              		@ args = 0, pretend = 0, frame = 0
  83              		@ frame_needed = 1, uses_anonymous_args = 0
  84 0000 80B5     		push	{r7, lr}
  85              		.cfi_def_cfa_offset 8
  86              		.cfi_offset 7, -8
  87              		.cfi_offset 14, -4
  88 0002 00AF     		add	r7, sp, #0
  89              		.cfi_def_cfa_register 7
 137:..\..\ugfx_2.7\ugfx_2.7\src/gfx.c **** 	if (!gfxInitDone)
  90              		.loc 1 137 0
ARM GAS  C:\Users\megan\AppData\Local\Temp\ccVElWjj.s 			page 5


  91 0004 084B     		ldr	r3, .L11
  92 0006 1B78     		ldrb	r3, [r3]
  93 0008 002B     		cmp	r3, #0
  94 000a 09D0     		beq	.L10
 138:..\..\ugfx_2.7\ugfx_2.7\src/gfx.c **** 		return;
 139:..\..\ugfx_2.7\ugfx_2.7\src/gfx.c **** 	gfxInitDone = FALSE;
  95              		.loc 1 139 0
  96 000c 064B     		ldr	r3, .L11
  97 000e 0022     		movs	r2, #0
  98 0010 1A70     		strb	r2, [r3]
 140:..\..\ugfx_2.7\ugfx_2.7\src/gfx.c **** 
 141:..\..\ugfx_2.7\ugfx_2.7\src/gfx.c **** 	// We deinitialise the opposite way as we initialised
 142:..\..\ugfx_2.7\ugfx_2.7\src/gfx.c **** 	#if GFX_USE_GWIN
 143:..\..\ugfx_2.7\ugfx_2.7\src/gfx.c **** 		_gwinDeinit();
 144:..\..\ugfx_2.7\ugfx_2.7\src/gfx.c **** 	#endif
 145:..\..\ugfx_2.7\ugfx_2.7\src/gfx.c **** 	#if GFX_USE_GAUDIO
 146:..\..\ugfx_2.7\ugfx_2.7\src/gfx.c **** 		_gaudioDeinit();
 147:..\..\ugfx_2.7\ugfx_2.7\src/gfx.c **** 	#endif
 148:..\..\ugfx_2.7\ugfx_2.7\src/gfx.c **** 	#if GFX_USE_GADC
 149:..\..\ugfx_2.7\ugfx_2.7\src/gfx.c **** 		_gadcDeinit();
 150:..\..\ugfx_2.7\ugfx_2.7\src/gfx.c **** 	#endif
 151:..\..\ugfx_2.7\ugfx_2.7\src/gfx.c **** 	#if GFX_USE_GINPUT
 152:..\..\ugfx_2.7\ugfx_2.7\src/gfx.c **** 		_ginputDeinit();
 153:..\..\ugfx_2.7\ugfx_2.7\src/gfx.c **** 	#endif
 154:..\..\ugfx_2.7\ugfx_2.7\src/gfx.c **** 	#if GFX_USE_GDISP
 155:..\..\ugfx_2.7\ugfx_2.7\src/gfx.c **** 		_gdispDeinit();
  99              		.loc 1 155 0
 100 0012 FFF7FEFF 		bl	_gdispDeinit
 156:..\..\ugfx_2.7\ugfx_2.7\src/gfx.c **** 	#endif
 157:..\..\ugfx_2.7\ugfx_2.7\src/gfx.c **** 	#if GFX_USE_GFILE
 158:..\..\ugfx_2.7\ugfx_2.7\src/gfx.c **** 		_gfileDeinit();
 159:..\..\ugfx_2.7\ugfx_2.7\src/gfx.c **** 	#endif
 160:..\..\ugfx_2.7\ugfx_2.7\src/gfx.c **** 	#if GFX_USE_GDRIVER
 161:..\..\ugfx_2.7\ugfx_2.7\src/gfx.c **** 		_gdriverDeinit();
 101              		.loc 1 161 0
 102 0016 FFF7FEFF 		bl	_gdriverDeinit
 162:..\..\ugfx_2.7\ugfx_2.7\src/gfx.c **** 	#endif
 163:..\..\ugfx_2.7\ugfx_2.7\src/gfx.c **** 	#if GFX_USE_GTIMER
 164:..\..\ugfx_2.7\ugfx_2.7\src/gfx.c **** 		_gtimerDeinit();
 165:..\..\ugfx_2.7\ugfx_2.7\src/gfx.c **** 	#endif
 166:..\..\ugfx_2.7\ugfx_2.7\src/gfx.c **** 	#if GFX_USE_GEVENT
 167:..\..\ugfx_2.7\ugfx_2.7\src/gfx.c **** 		_geventDeinit();
 168:..\..\ugfx_2.7\ugfx_2.7\src/gfx.c **** 	#endif
 169:..\..\ugfx_2.7\ugfx_2.7\src/gfx.c **** 	#if GFX_USE_GTRANS
 170:..\..\ugfx_2.7\ugfx_2.7\src/gfx.c **** 		_gtransDeinit();
 171:..\..\ugfx_2.7\ugfx_2.7\src/gfx.c **** 	#endif
 172:..\..\ugfx_2.7\ugfx_2.7\src/gfx.c **** 	#if GFX_USE_GMISC
 173:..\..\ugfx_2.7\ugfx_2.7\src/gfx.c **** 		_gmiscDeinit();
 174:..\..\ugfx_2.7\ugfx_2.7\src/gfx.c **** 	#endif
 175:..\..\ugfx_2.7\ugfx_2.7\src/gfx.c **** 	#if GFX_USE_GQUEUE
 176:..\..\ugfx_2.7\ugfx_2.7\src/gfx.c **** 		_gqueueDeinit();
 177:..\..\ugfx_2.7\ugfx_2.7\src/gfx.c **** 	#endif
 178:..\..\ugfx_2.7\ugfx_2.7\src/gfx.c **** 	#ifdef GFX_OS_EXTRA_DEINIT_FUNCTION
 179:..\..\ugfx_2.7\ugfx_2.7\src/gfx.c **** 		GFX_OS_EXTRA_DEINIT_FUNCTION();
 180:..\..\ugfx_2.7\ugfx_2.7\src/gfx.c **** 	#endif
 181:..\..\ugfx_2.7\ugfx_2.7\src/gfx.c **** 	_gosDeinit();
 103              		.loc 1 181 0
ARM GAS  C:\Users\megan\AppData\Local\Temp\ccVElWjj.s 			page 6


 104 001a FFF7FEFF 		bl	_gosDeinit
 105 001e 00E0     		b	.L7
 106              	.L10:
 138:..\..\ugfx_2.7\ugfx_2.7\src/gfx.c **** 	gfxInitDone = FALSE;
 107              		.loc 1 138 0
 108 0020 C046     		nop
 109              	.L7:
 182:..\..\ugfx_2.7\ugfx_2.7\src/gfx.c **** }
 110              		.loc 1 182 0
 111 0022 BD46     		mov	sp, r7
 112              		@ sp needed
 113 0024 80BD     		pop	{r7, pc}
 114              	.L12:
 115 0026 C046     		.align	2
 116              	.L11:
 117 0028 00000000 		.word	gfxInitDone
 118              		.cfi_endproc
 119              	.LFE1:
 120              		.size	gfxDeinit, .-gfxDeinit
 121              		.section	.text._gosInit,"ax",%progbits
 122              		.align	2
 123              		.global	_gosInit
 124              		.code	16
 125              		.thumb_func
 126              		.type	_gosInit, %function
 127              	_gosInit:
 128              	.LFB2:
 129              		.file 2 "..\\..\\ugfx_2.7\\ugfx_2.7\\src\\gos/gos_raw32.c"
   1:..\..\ugfx_2.7\ugfx_2.7\src\gos/gos_raw32.c **** /*
   2:..\..\ugfx_2.7\ugfx_2.7\src\gos/gos_raw32.c ****  * This file is subject to the terms of the GFX License. If a copy of
   3:..\..\ugfx_2.7\ugfx_2.7\src\gos/gos_raw32.c ****  * the license was not distributed with this file, you can obtain one at:
   4:..\..\ugfx_2.7\ugfx_2.7\src\gos/gos_raw32.c ****  *
   5:..\..\ugfx_2.7\ugfx_2.7\src\gos/gos_raw32.c ****  *              http://ugfx.org/license.html
   6:..\..\ugfx_2.7\ugfx_2.7\src\gos/gos_raw32.c ****  */
   7:..\..\ugfx_2.7\ugfx_2.7\src\gos/gos_raw32.c **** 
   8:..\..\ugfx_2.7\ugfx_2.7\src\gos/gos_raw32.c **** // We need to include stdio.h below for Win32 emulation. Turn off GFILE_NEED_STDIO just for this fi
   9:..\..\ugfx_2.7\ugfx_2.7\src\gos/gos_raw32.c **** #define GFILE_NEED_STDIO_MUST_BE_OFF
  10:..\..\ugfx_2.7\ugfx_2.7\src\gos/gos_raw32.c **** 
  11:..\..\ugfx_2.7\ugfx_2.7\src\gos/gos_raw32.c **** #include "../../gfx.h"
  12:..\..\ugfx_2.7\ugfx_2.7\src\gos/gos_raw32.c **** 
  13:..\..\ugfx_2.7\ugfx_2.7\src\gos/gos_raw32.c **** #if GFX_USE_OS_RAW32
  14:..\..\ugfx_2.7\ugfx_2.7\src\gos/gos_raw32.c **** 
  15:..\..\ugfx_2.7\ugfx_2.7\src\gos/gos_raw32.c **** void _gosHeapInit(void);
  16:..\..\ugfx_2.7\ugfx_2.7\src\gos/gos_raw32.c **** void _gosThreadsInit(void);
  17:..\..\ugfx_2.7\ugfx_2.7\src\gos/gos_raw32.c **** 
  18:..\..\ugfx_2.7\ugfx_2.7\src\gos/gos_raw32.c **** /*********************************************************
  19:..\..\ugfx_2.7\ugfx_2.7\src\gos/gos_raw32.c ****  * Initialise
  20:..\..\ugfx_2.7\ugfx_2.7\src\gos/gos_raw32.c ****  *********************************************************/
  21:..\..\ugfx_2.7\ugfx_2.7\src\gos/gos_raw32.c **** 
  22:..\..\ugfx_2.7\ugfx_2.7\src\gos/gos_raw32.c **** void _gosInit(void)
  23:..\..\ugfx_2.7\ugfx_2.7\src\gos/gos_raw32.c **** {
 130              		.loc 2 23 0
 131              		.cfi_startproc
 132              		@ args = 0, pretend = 0, frame = 0
 133              		@ frame_needed = 1, uses_anonymous_args = 0
 134 0000 80B5     		push	{r7, lr}
 135              		.cfi_def_cfa_offset 8
ARM GAS  C:\Users\megan\AppData\Local\Temp\ccVElWjj.s 			page 7


 136              		.cfi_offset 7, -8
 137              		.cfi_offset 14, -4
 138 0002 00AF     		add	r7, sp, #0
 139              		.cfi_def_cfa_register 7
  24:..\..\ugfx_2.7\ugfx_2.7\src\gos/gos_raw32.c **** 	/* No initialization of the operating system itself is needed as there isn't one.
  25:..\..\ugfx_2.7\ugfx_2.7\src\gos/gos_raw32.c **** 	 * On the other hand the C runtime should still already be initialized before
  26:..\..\ugfx_2.7\ugfx_2.7\src\gos/gos_raw32.c **** 	 * getting here!
  27:..\..\ugfx_2.7\ugfx_2.7\src\gos/gos_raw32.c **** 	 */
  28:..\..\ugfx_2.7\ugfx_2.7\src\gos/gos_raw32.c **** 	#if !GFX_OS_INIT_NO_WARNING
  29:..\..\ugfx_2.7\ugfx_2.7\src\gos/gos_raw32.c **** 		#warning "GOS: Raw32 - Make sure you initialize your hardware and the C runtime before calling gf
  30:..\..\ugfx_2.7\ugfx_2.7\src\gos/gos_raw32.c **** 	#endif
  31:..\..\ugfx_2.7\ugfx_2.7\src\gos/gos_raw32.c **** 
  32:..\..\ugfx_2.7\ugfx_2.7\src\gos/gos_raw32.c **** 	// Set up the heap allocator
  33:..\..\ugfx_2.7\ugfx_2.7\src\gos/gos_raw32.c **** 	_gosHeapInit();
 140              		.loc 2 33 0
 141 0004 FFF7FEFF 		bl	_gosHeapInit
  34:..\..\ugfx_2.7\ugfx_2.7\src\gos/gos_raw32.c **** 
  35:..\..\ugfx_2.7\ugfx_2.7\src\gos/gos_raw32.c **** 	// Start the scheduler
  36:..\..\ugfx_2.7\ugfx_2.7\src\gos/gos_raw32.c **** 	_gosThreadsInit();
 142              		.loc 2 36 0
 143 0008 FFF7FEFF 		bl	_gosThreadsInit
  37:..\..\ugfx_2.7\ugfx_2.7\src\gos/gos_raw32.c **** }
 144              		.loc 2 37 0
 145 000c C046     		nop
 146 000e BD46     		mov	sp, r7
 147              		@ sp needed
 148 0010 80BD     		pop	{r7, pc}
 149              		.cfi_endproc
 150              	.LFE2:
 151              		.size	_gosInit, .-_gosInit
 152 0012 C046     		.section	.text._gosDeinit,"ax",%progbits
 153              		.align	2
 154              		.global	_gosDeinit
 155              		.code	16
 156              		.thumb_func
 157              		.type	_gosDeinit, %function
 158              	_gosDeinit:
 159              	.LFB3:
  38:..\..\ugfx_2.7\ugfx_2.7\src\gos/gos_raw32.c **** 
  39:..\..\ugfx_2.7\ugfx_2.7\src\gos/gos_raw32.c **** void _gosDeinit(void)
  40:..\..\ugfx_2.7\ugfx_2.7\src\gos/gos_raw32.c **** {
 160              		.loc 2 40 0
 161              		.cfi_startproc
 162              		@ args = 0, pretend = 0, frame = 0
 163              		@ frame_needed = 1, uses_anonymous_args = 0
 164 0000 80B5     		push	{r7, lr}
 165              		.cfi_def_cfa_offset 8
 166              		.cfi_offset 7, -8
 167              		.cfi_offset 14, -4
 168 0002 00AF     		add	r7, sp, #0
 169              		.cfi_def_cfa_register 7
  41:..\..\ugfx_2.7\ugfx_2.7\src\gos/gos_raw32.c **** 	/* ToDo */
  42:..\..\ugfx_2.7\ugfx_2.7\src\gos/gos_raw32.c **** }
 170              		.loc 2 42 0
 171 0004 C046     		nop
 172 0006 BD46     		mov	sp, r7
 173              		@ sp needed
ARM GAS  C:\Users\megan\AppData\Local\Temp\ccVElWjj.s 			page 8


 174 0008 80BD     		pop	{r7, pc}
 175              		.cfi_endproc
 176              	.LFE3:
 177              		.size	_gosDeinit, .-_gosDeinit
 178              		.section	.text.gfxHalt,"ax",%progbits
 179              		.align	2
 180              		.global	gfxHalt
 181              		.code	16
 182              		.thumb_func
 183              		.type	gfxHalt, %function
 184              	gfxHalt:
 185              	.LFB4:
  43:..\..\ugfx_2.7\ugfx_2.7\src\gos/gos_raw32.c **** 
  44:..\..\ugfx_2.7\ugfx_2.7\src\gos/gos_raw32.c **** /*********************************************************
  45:..\..\ugfx_2.7\ugfx_2.7\src\gos/gos_raw32.c ****  * For Win32 emulation - automatically add the tick functions
  46:..\..\ugfx_2.7\ugfx_2.7\src\gos/gos_raw32.c ****  * the user would normally have to provide for bare metal.
  47:..\..\ugfx_2.7\ugfx_2.7\src\gos/gos_raw32.c ****  *********************************************************/
  48:..\..\ugfx_2.7\ugfx_2.7\src\gos/gos_raw32.c **** 
  49:..\..\ugfx_2.7\ugfx_2.7\src\gos/gos_raw32.c **** #if defined(WIN32)
  50:..\..\ugfx_2.7\ugfx_2.7\src\gos/gos_raw32.c **** 	// Win32 nasty stuff - we have conflicting definitions for Red, Green & Blue
  51:..\..\ugfx_2.7\ugfx_2.7\src\gos/gos_raw32.c **** 	#ifndef _WIN32_WINNT
  52:..\..\ugfx_2.7\ugfx_2.7\src\gos/gos_raw32.c **** 		#define _WIN32_WINNT 0x0501			// Windows XP and up
  53:..\..\ugfx_2.7\ugfx_2.7\src\gos/gos_raw32.c **** 	#endif
  54:..\..\ugfx_2.7\ugfx_2.7\src\gos/gos_raw32.c **** 	#undef Red
  55:..\..\ugfx_2.7\ugfx_2.7\src\gos/gos_raw32.c **** 	#undef Green
  56:..\..\ugfx_2.7\ugfx_2.7\src\gos/gos_raw32.c **** 	#undef Blue
  57:..\..\ugfx_2.7\ugfx_2.7\src\gos/gos_raw32.c **** 	#define WIN32_LEAN_AND_MEAN
  58:..\..\ugfx_2.7\ugfx_2.7\src\gos/gos_raw32.c **** 	#include <windows.h>
  59:..\..\ugfx_2.7\ugfx_2.7\src\gos/gos_raw32.c **** 	#undef WIN32_LEAN_AND_MEAN
  60:..\..\ugfx_2.7\ugfx_2.7\src\gos/gos_raw32.c **** 	#define Blue			HTML2COLOR(0x0000FF)
  61:..\..\ugfx_2.7\ugfx_2.7\src\gos/gos_raw32.c **** 	#define Red				HTML2COLOR(0xFF0000)
  62:..\..\ugfx_2.7\ugfx_2.7\src\gos/gos_raw32.c **** 	#define Green			HTML2COLOR(0x008000)
  63:..\..\ugfx_2.7\ugfx_2.7\src\gos/gos_raw32.c **** 
  64:..\..\ugfx_2.7\ugfx_2.7\src\gos/gos_raw32.c **** 	#include <stdio.h>
  65:..\..\ugfx_2.7\ugfx_2.7\src\gos/gos_raw32.c **** 	systemticks_t gfxSystemTicks(void)						{ return GetTickCount(); }
  66:..\..\ugfx_2.7\ugfx_2.7\src\gos/gos_raw32.c **** 	systemticks_t gfxMillisecondsToTicks(delaytime_t ms)	{ return ms; }
  67:..\..\ugfx_2.7\ugfx_2.7\src\gos/gos_raw32.c **** #endif
  68:..\..\ugfx_2.7\ugfx_2.7\src\gos/gos_raw32.c **** 
  69:..\..\ugfx_2.7\ugfx_2.7\src\gos/gos_raw32.c **** /*********************************************************
  70:..\..\ugfx_2.7\ugfx_2.7\src\gos/gos_raw32.c ****  * Exit everything functions
  71:..\..\ugfx_2.7\ugfx_2.7\src\gos/gos_raw32.c ****  *********************************************************/
  72:..\..\ugfx_2.7\ugfx_2.7\src\gos/gos_raw32.c **** 
  73:..\..\ugfx_2.7\ugfx_2.7\src\gos/gos_raw32.c **** void gfxHalt(const char *msg) {
 186              		.loc 2 73 0
 187              		.cfi_startproc
 188              		@ args = 0, pretend = 0, frame = 16
 189              		@ frame_needed = 1, uses_anonymous_args = 0
 190 0000 80B5     		push	{r7, lr}
 191              		.cfi_def_cfa_offset 8
 192              		.cfi_offset 7, -8
 193              		.cfi_offset 14, -4
 194 0002 84B0     		sub	sp, sp, #16
 195              		.cfi_def_cfa_offset 24
 196 0004 00AF     		add	r7, sp, #0
 197              		.cfi_def_cfa_register 7
 198 0006 7860     		str	r0, [r7, #4]
 199              	.L16:
ARM GAS  C:\Users\megan\AppData\Local\Temp\ccVElWjj.s 			page 9


  74:..\..\ugfx_2.7\ugfx_2.7\src\gos/gos_raw32.c **** 	#if defined(WIN32)
  75:..\..\ugfx_2.7\ugfx_2.7\src\gos/gos_raw32.c **** 		fprintf(stderr, "%s\n", msg);
  76:..\..\ugfx_2.7\ugfx_2.7\src\gos/gos_raw32.c **** 		ExitProcess(1);
  77:..\..\ugfx_2.7\ugfx_2.7\src\gos/gos_raw32.c **** 	#else
  78:..\..\ugfx_2.7\ugfx_2.7\src\gos/gos_raw32.c **** 		volatile uint32_t	dummy;
  79:..\..\ugfx_2.7\ugfx_2.7\src\gos/gos_raw32.c **** 		(void)				msg;
  80:..\..\ugfx_2.7\ugfx_2.7\src\gos/gos_raw32.c **** 
  81:..\..\ugfx_2.7\ugfx_2.7\src\gos/gos_raw32.c **** 		while(1)
  82:..\..\ugfx_2.7\ugfx_2.7\src\gos/gos_raw32.c **** 			dummy++;
 200              		.loc 2 82 0 discriminator 1
 201 0008 FB68     		ldr	r3, [r7, #12]
 202 000a 0133     		adds	r3, r3, #1
 203 000c FB60     		str	r3, [r7, #12]
 204 000e FBE7     		b	.L16
 205              		.cfi_endproc
 206              	.LFE4:
 207              		.size	gfxHalt, .-gfxHalt
 208              		.section	.text.gfxExit,"ax",%progbits
 209              		.align	2
 210              		.global	gfxExit
 211              		.code	16
 212              		.thumb_func
 213              		.type	gfxExit, %function
 214              	gfxExit:
 215              	.LFB5:
  83:..\..\ugfx_2.7\ugfx_2.7\src\gos/gos_raw32.c **** 	#endif
  84:..\..\ugfx_2.7\ugfx_2.7\src\gos/gos_raw32.c **** }
  85:..\..\ugfx_2.7\ugfx_2.7\src\gos/gos_raw32.c **** 
  86:..\..\ugfx_2.7\ugfx_2.7\src\gos/gos_raw32.c **** void gfxExit(void) {
 216              		.loc 2 86 0
 217              		.cfi_startproc
 218              		@ args = 0, pretend = 0, frame = 8
 219              		@ frame_needed = 1, uses_anonymous_args = 0
 220 0000 80B5     		push	{r7, lr}
 221              		.cfi_def_cfa_offset 8
 222              		.cfi_offset 7, -8
 223              		.cfi_offset 14, -4
 224 0002 82B0     		sub	sp, sp, #8
 225              		.cfi_def_cfa_offset 16
 226 0004 00AF     		add	r7, sp, #0
 227              		.cfi_def_cfa_register 7
 228              	.L18:
  87:..\..\ugfx_2.7\ugfx_2.7\src\gos/gos_raw32.c **** 	#if defined(WIN32)
  88:..\..\ugfx_2.7\ugfx_2.7\src\gos/gos_raw32.c **** 		ExitProcess(0);
  89:..\..\ugfx_2.7\ugfx_2.7\src\gos/gos_raw32.c **** 	#else
  90:..\..\ugfx_2.7\ugfx_2.7\src\gos/gos_raw32.c **** 		volatile uint32_t	dummy;
  91:..\..\ugfx_2.7\ugfx_2.7\src\gos/gos_raw32.c **** 
  92:..\..\ugfx_2.7\ugfx_2.7\src\gos/gos_raw32.c **** 		while(1)
  93:..\..\ugfx_2.7\ugfx_2.7\src\gos/gos_raw32.c **** 			dummy++;
 229              		.loc 2 93 0 discriminator 1
 230 0006 7B68     		ldr	r3, [r7, #4]
 231 0008 0133     		adds	r3, r3, #1
 232 000a 7B60     		str	r3, [r7, #4]
 233 000c FBE7     		b	.L18
 234              		.cfi_endproc
 235              	.LFE5:
 236              		.size	gfxExit, .-gfxExit
ARM GAS  C:\Users\megan\AppData\Local\Temp\ccVElWjj.s 			page 10


 237 000e C046     		.section	.text.gfxSystemLock,"ax",%progbits
 238              		.align	2
 239              		.global	gfxSystemLock
 240              		.code	16
 241              		.thumb_func
 242              		.type	gfxSystemLock, %function
 243              	gfxSystemLock:
 244              	.LFB6:
 245              		.file 3 "..\\..\\ugfx_2.7\\ugfx_2.7\\src\\gos/gos_x_threads.c"
   1:..\..\ugfx_2.7\ugfx_2.7\src\gos/gos_x_threads.c **** /*
   2:..\..\ugfx_2.7\ugfx_2.7\src\gos/gos_x_threads.c ****  * This file is subject to the terms of the GFX License. If a copy of
   3:..\..\ugfx_2.7\ugfx_2.7\src\gos/gos_x_threads.c ****  * the license was not distributed with this file, you can obtain one at:
   4:..\..\ugfx_2.7\ugfx_2.7\src\gos/gos_x_threads.c ****  *
   5:..\..\ugfx_2.7\ugfx_2.7\src\gos/gos_x_threads.c ****  *              http://ugfx.org/license.html
   6:..\..\ugfx_2.7\ugfx_2.7\src\gos/gos_x_threads.c ****  */
   7:..\..\ugfx_2.7\ugfx_2.7\src\gos/gos_x_threads.c **** 
   8:..\..\ugfx_2.7\ugfx_2.7\src\gos/gos_x_threads.c **** #include "../../gfx.h"
   9:..\..\ugfx_2.7\ugfx_2.7\src\gos/gos_x_threads.c **** 
  10:..\..\ugfx_2.7\ugfx_2.7\src\gos/gos_x_threads.c **** #if GOS_NEED_X_THREADS
  11:..\..\ugfx_2.7\ugfx_2.7\src\gos/gos_x_threads.c **** 
  12:..\..\ugfx_2.7\ugfx_2.7\src\gos/gos_x_threads.c **** /*********************************************************
  13:..\..\ugfx_2.7\ugfx_2.7\src\gos/gos_x_threads.c ****  * Semaphores and critical region functions
  14:..\..\ugfx_2.7\ugfx_2.7\src\gos/gos_x_threads.c ****  *********************************************************/
  15:..\..\ugfx_2.7\ugfx_2.7\src\gos/gos_x_threads.c **** 
  16:..\..\ugfx_2.7\ugfx_2.7\src\gos/gos_x_threads.c **** #if !defined(INTERRUPTS_OFF) || !defined(INTERRUPTS_ON)
  17:..\..\ugfx_2.7\ugfx_2.7\src\gos/gos_x_threads.c **** 	#define INTERRUPTS_OFF()
  18:..\..\ugfx_2.7\ugfx_2.7\src\gos/gos_x_threads.c **** 	#define INTERRUPTS_ON()
  19:..\..\ugfx_2.7\ugfx_2.7\src\gos/gos_x_threads.c **** #endif
  20:..\..\ugfx_2.7\ugfx_2.7\src\gos/gos_x_threads.c **** 
  21:..\..\ugfx_2.7\ugfx_2.7\src\gos/gos_x_threads.c **** void gfxSystemLock(void) {
 246              		.loc 3 21 0
 247              		.cfi_startproc
 248              		@ args = 0, pretend = 0, frame = 0
 249              		@ frame_needed = 1, uses_anonymous_args = 0
 250 0000 80B5     		push	{r7, lr}
 251              		.cfi_def_cfa_offset 8
 252              		.cfi_offset 7, -8
 253              		.cfi_offset 14, -4
 254 0002 00AF     		add	r7, sp, #0
 255              		.cfi_def_cfa_register 7
  22:..\..\ugfx_2.7\ugfx_2.7\src\gos/gos_x_threads.c **** 	INTERRUPTS_OFF();
  23:..\..\ugfx_2.7\ugfx_2.7\src\gos/gos_x_threads.c **** }
 256              		.loc 3 23 0
 257 0004 C046     		nop
 258 0006 BD46     		mov	sp, r7
 259              		@ sp needed
 260 0008 80BD     		pop	{r7, pc}
 261              		.cfi_endproc
 262              	.LFE6:
 263              		.size	gfxSystemLock, .-gfxSystemLock
 264 000a C046     		.section	.text.gfxSystemUnlock,"ax",%progbits
 265              		.align	2
 266              		.global	gfxSystemUnlock
 267              		.code	16
 268              		.thumb_func
 269              		.type	gfxSystemUnlock, %function
 270              	gfxSystemUnlock:
ARM GAS  C:\Users\megan\AppData\Local\Temp\ccVElWjj.s 			page 11


 271              	.LFB7:
  24:..\..\ugfx_2.7\ugfx_2.7\src\gos/gos_x_threads.c **** 
  25:..\..\ugfx_2.7\ugfx_2.7\src\gos/gos_x_threads.c **** void gfxSystemUnlock(void) {
 272              		.loc 3 25 0
 273              		.cfi_startproc
 274              		@ args = 0, pretend = 0, frame = 0
 275              		@ frame_needed = 1, uses_anonymous_args = 0
 276 0000 80B5     		push	{r7, lr}
 277              		.cfi_def_cfa_offset 8
 278              		.cfi_offset 7, -8
 279              		.cfi_offset 14, -4
 280 0002 00AF     		add	r7, sp, #0
 281              		.cfi_def_cfa_register 7
  26:..\..\ugfx_2.7\ugfx_2.7\src\gos/gos_x_threads.c **** 	INTERRUPTS_ON();
  27:..\..\ugfx_2.7\ugfx_2.7\src\gos/gos_x_threads.c **** }
 282              		.loc 3 27 0
 283 0004 C046     		nop
 284 0006 BD46     		mov	sp, r7
 285              		@ sp needed
 286 0008 80BD     		pop	{r7, pc}
 287              		.cfi_endproc
 288              	.LFE7:
 289              		.size	gfxSystemUnlock, .-gfxSystemUnlock
 290              		.section	.text.gfxMutexInit,"ax",%progbits
 291              		.align	2
 292              		.global	gfxMutexInit
 293              		.code	16
 294              		.thumb_func
 295              		.type	gfxMutexInit, %function
 296              	gfxMutexInit:
 297              	.LFB8:
  28:..\..\ugfx_2.7\ugfx_2.7\src\gos/gos_x_threads.c **** 
  29:..\..\ugfx_2.7\ugfx_2.7\src\gos/gos_x_threads.c **** void gfxMutexInit(gfxMutex *pmutex) {
 298              		.loc 3 29 0
 299              		.cfi_startproc
 300              		@ args = 0, pretend = 0, frame = 8
 301              		@ frame_needed = 1, uses_anonymous_args = 0
 302 0000 80B5     		push	{r7, lr}
 303              		.cfi_def_cfa_offset 8
 304              		.cfi_offset 7, -8
 305              		.cfi_offset 14, -4
 306 0002 82B0     		sub	sp, sp, #8
 307              		.cfi_def_cfa_offset 16
 308 0004 00AF     		add	r7, sp, #0
 309              		.cfi_def_cfa_register 7
 310 0006 7860     		str	r0, [r7, #4]
  30:..\..\ugfx_2.7\ugfx_2.7\src\gos/gos_x_threads.c **** 	pmutex[0] = 0;
 311              		.loc 3 30 0
 312 0008 7B68     		ldr	r3, [r7, #4]
 313 000a 0022     		movs	r2, #0
 314 000c 1A60     		str	r2, [r3]
  31:..\..\ugfx_2.7\ugfx_2.7\src\gos/gos_x_threads.c **** }
 315              		.loc 3 31 0
 316 000e C046     		nop
 317 0010 BD46     		mov	sp, r7
 318 0012 02B0     		add	sp, sp, #8
 319              		@ sp needed
ARM GAS  C:\Users\megan\AppData\Local\Temp\ccVElWjj.s 			page 12


 320 0014 80BD     		pop	{r7, pc}
 321              		.cfi_endproc
 322              	.LFE8:
 323              		.size	gfxMutexInit, .-gfxMutexInit
 324 0016 C046     		.section	.text.gfxMutexEnter,"ax",%progbits
 325              		.align	2
 326              		.global	gfxMutexEnter
 327              		.code	16
 328              		.thumb_func
 329              		.type	gfxMutexEnter, %function
 330              	gfxMutexEnter:
 331              	.LFB9:
  32:..\..\ugfx_2.7\ugfx_2.7\src\gos/gos_x_threads.c **** 
  33:..\..\ugfx_2.7\ugfx_2.7\src\gos/gos_x_threads.c **** void gfxMutexEnter(gfxMutex *pmutex) {
 332              		.loc 3 33 0
 333              		.cfi_startproc
 334              		@ args = 0, pretend = 0, frame = 8
 335              		@ frame_needed = 1, uses_anonymous_args = 0
 336 0000 80B5     		push	{r7, lr}
 337              		.cfi_def_cfa_offset 8
 338              		.cfi_offset 7, -8
 339              		.cfi_offset 14, -4
 340 0002 82B0     		sub	sp, sp, #8
 341              		.cfi_def_cfa_offset 16
 342 0004 00AF     		add	r7, sp, #0
 343              		.cfi_def_cfa_register 7
 344 0006 7860     		str	r0, [r7, #4]
  34:..\..\ugfx_2.7\ugfx_2.7\src\gos/gos_x_threads.c **** 	INTERRUPTS_OFF();
  35:..\..\ugfx_2.7\ugfx_2.7\src\gos/gos_x_threads.c **** 	while (pmutex[0]) {
 345              		.loc 3 35 0
 346 0008 01E0     		b	.L23
 347              	.L24:
  36:..\..\ugfx_2.7\ugfx_2.7\src\gos/gos_x_threads.c **** 		INTERRUPTS_ON();
  37:..\..\ugfx_2.7\ugfx_2.7\src\gos/gos_x_threads.c **** 		gfxYield();
 348              		.loc 3 37 0
 349 000a FFF7FEFF 		bl	gfxYield
 350              	.L23:
  35:..\..\ugfx_2.7\ugfx_2.7\src\gos/gos_x_threads.c **** 		INTERRUPTS_ON();
 351              		.loc 3 35 0
 352 000e 7B68     		ldr	r3, [r7, #4]
 353 0010 1B68     		ldr	r3, [r3]
 354 0012 002B     		cmp	r3, #0
 355 0014 F9D1     		bne	.L24
  38:..\..\ugfx_2.7\ugfx_2.7\src\gos/gos_x_threads.c **** 		INTERRUPTS_OFF();
  39:..\..\ugfx_2.7\ugfx_2.7\src\gos/gos_x_threads.c **** 	}
  40:..\..\ugfx_2.7\ugfx_2.7\src\gos/gos_x_threads.c **** 	pmutex[0] = 1;
 356              		.loc 3 40 0
 357 0016 7B68     		ldr	r3, [r7, #4]
 358 0018 0122     		movs	r2, #1
 359 001a 1A60     		str	r2, [r3]
  41:..\..\ugfx_2.7\ugfx_2.7\src\gos/gos_x_threads.c **** 	INTERRUPTS_ON();
  42:..\..\ugfx_2.7\ugfx_2.7\src\gos/gos_x_threads.c **** }
 360              		.loc 3 42 0
 361 001c C046     		nop
 362 001e BD46     		mov	sp, r7
 363 0020 02B0     		add	sp, sp, #8
 364              		@ sp needed
ARM GAS  C:\Users\megan\AppData\Local\Temp\ccVElWjj.s 			page 13


 365 0022 80BD     		pop	{r7, pc}
 366              		.cfi_endproc
 367              	.LFE9:
 368              		.size	gfxMutexEnter, .-gfxMutexEnter
 369              		.section	.text.gfxMutexExit,"ax",%progbits
 370              		.align	2
 371              		.global	gfxMutexExit
 372              		.code	16
 373              		.thumb_func
 374              		.type	gfxMutexExit, %function
 375              	gfxMutexExit:
 376              	.LFB10:
  43:..\..\ugfx_2.7\ugfx_2.7\src\gos/gos_x_threads.c **** 
  44:..\..\ugfx_2.7\ugfx_2.7\src\gos/gos_x_threads.c **** void gfxMutexExit(gfxMutex *pmutex) {
 377              		.loc 3 44 0
 378              		.cfi_startproc
 379              		@ args = 0, pretend = 0, frame = 8
 380              		@ frame_needed = 1, uses_anonymous_args = 0
 381 0000 80B5     		push	{r7, lr}
 382              		.cfi_def_cfa_offset 8
 383              		.cfi_offset 7, -8
 384              		.cfi_offset 14, -4
 385 0002 82B0     		sub	sp, sp, #8
 386              		.cfi_def_cfa_offset 16
 387 0004 00AF     		add	r7, sp, #0
 388              		.cfi_def_cfa_register 7
 389 0006 7860     		str	r0, [r7, #4]
  45:..\..\ugfx_2.7\ugfx_2.7\src\gos/gos_x_threads.c **** 	pmutex[0] = 0;
 390              		.loc 3 45 0
 391 0008 7B68     		ldr	r3, [r7, #4]
 392 000a 0022     		movs	r2, #0
 393 000c 1A60     		str	r2, [r3]
  46:..\..\ugfx_2.7\ugfx_2.7\src\gos/gos_x_threads.c **** }
 394              		.loc 3 46 0
 395 000e C046     		nop
 396 0010 BD46     		mov	sp, r7
 397 0012 02B0     		add	sp, sp, #8
 398              		@ sp needed
 399 0014 80BD     		pop	{r7, pc}
 400              		.cfi_endproc
 401              	.LFE10:
 402              		.size	gfxMutexExit, .-gfxMutexExit
 403 0016 C046     		.section	.text.gfxSemInit,"ax",%progbits
 404              		.align	2
 405              		.global	gfxSemInit
 406              		.code	16
 407              		.thumb_func
 408              		.type	gfxSemInit, %function
 409              	gfxSemInit:
 410              	.LFB11:
  47:..\..\ugfx_2.7\ugfx_2.7\src\gos/gos_x_threads.c **** 
  48:..\..\ugfx_2.7\ugfx_2.7\src\gos/gos_x_threads.c **** void gfxSemInit(gfxSem *psem, semcount_t val, semcount_t limit) {
 411              		.loc 3 48 0
 412              		.cfi_startproc
 413              		@ args = 0, pretend = 0, frame = 8
 414              		@ frame_needed = 1, uses_anonymous_args = 0
 415 0000 80B5     		push	{r7, lr}
ARM GAS  C:\Users\megan\AppData\Local\Temp\ccVElWjj.s 			page 14


 416              		.cfi_def_cfa_offset 8
 417              		.cfi_offset 7, -8
 418              		.cfi_offset 14, -4
 419 0002 82B0     		sub	sp, sp, #8
 420              		.cfi_def_cfa_offset 16
 421 0004 00AF     		add	r7, sp, #0
 422              		.cfi_def_cfa_register 7
 423 0006 7860     		str	r0, [r7, #4]
 424 0008 0800     		movs	r0, r1
 425 000a 1100     		movs	r1, r2
 426 000c BB1C     		adds	r3, r7, #2
 427 000e 021C     		adds	r2, r0, #0
 428 0010 1A80     		strh	r2, [r3]
 429 0012 3B00     		movs	r3, r7
 430 0014 0A1C     		adds	r2, r1, #0
 431 0016 1A80     		strh	r2, [r3]
  49:..\..\ugfx_2.7\ugfx_2.7\src\gos/gos_x_threads.c **** 	psem->cnt = val;
 432              		.loc 3 49 0
 433 0018 7B68     		ldr	r3, [r7, #4]
 434 001a BA1C     		adds	r2, r7, #2
 435 001c 1288     		ldrh	r2, [r2]
 436 001e 1A80     		strh	r2, [r3]
  50:..\..\ugfx_2.7\ugfx_2.7\src\gos/gos_x_threads.c **** 	psem->limit = limit;
 437              		.loc 3 50 0
 438 0020 7B68     		ldr	r3, [r7, #4]
 439 0022 3A00     		movs	r2, r7
 440 0024 1288     		ldrh	r2, [r2]
 441 0026 5A80     		strh	r2, [r3, #2]
  51:..\..\ugfx_2.7\ugfx_2.7\src\gos/gos_x_threads.c **** }
 442              		.loc 3 51 0
 443 0028 C046     		nop
 444 002a BD46     		mov	sp, r7
 445 002c 02B0     		add	sp, sp, #8
 446              		@ sp needed
 447 002e 80BD     		pop	{r7, pc}
 448              		.cfi_endproc
 449              	.LFE11:
 450              		.size	gfxSemInit, .-gfxSemInit
 451              		.section	.text.gfxSemWait,"ax",%progbits
 452              		.align	2
 453              		.global	gfxSemWait
 454              		.code	16
 455              		.thumb_func
 456              		.type	gfxSemWait, %function
 457              	gfxSemWait:
 458              	.LFB12:
  52:..\..\ugfx_2.7\ugfx_2.7\src\gos/gos_x_threads.c **** 
  53:..\..\ugfx_2.7\ugfx_2.7\src\gos/gos_x_threads.c **** bool_t gfxSemWait(gfxSem *psem, delaytime_t ms) {
 459              		.loc 3 53 0
 460              		.cfi_startproc
 461              		@ args = 0, pretend = 0, frame = 16
 462              		@ frame_needed = 1, uses_anonymous_args = 0
 463 0000 80B5     		push	{r7, lr}
 464              		.cfi_def_cfa_offset 8
 465              		.cfi_offset 7, -8
 466              		.cfi_offset 14, -4
 467 0002 84B0     		sub	sp, sp, #16
ARM GAS  C:\Users\megan\AppData\Local\Temp\ccVElWjj.s 			page 15


 468              		.cfi_def_cfa_offset 24
 469 0004 00AF     		add	r7, sp, #0
 470              		.cfi_def_cfa_register 7
 471 0006 7860     		str	r0, [r7, #4]
 472 0008 3960     		str	r1, [r7]
  54:..\..\ugfx_2.7\ugfx_2.7\src\gos/gos_x_threads.c **** 	systemticks_t	starttm, delay;
  55:..\..\ugfx_2.7\ugfx_2.7\src\gos/gos_x_threads.c **** 
  56:..\..\ugfx_2.7\ugfx_2.7\src\gos/gos_x_threads.c **** 	// Convert our delay to ticks
  57:..\..\ugfx_2.7\ugfx_2.7\src\gos/gos_x_threads.c **** 	starttm = 0;
 473              		.loc 3 57 0
 474 000a 0023     		movs	r3, #0
 475 000c FB60     		str	r3, [r7, #12]
  58:..\..\ugfx_2.7\ugfx_2.7\src\gos/gos_x_threads.c **** 	switch (ms) {
 476              		.loc 3 58 0
 477 000e 3B68     		ldr	r3, [r7]
 478 0010 002B     		cmp	r3, #0
 479 0012 02D0     		beq	.L29
 480 0014 0133     		adds	r3, r3, #1
 481 0016 03D0     		beq	.L30
 482 0018 06E0     		b	.L41
 483              	.L29:
  59:..\..\ugfx_2.7\ugfx_2.7\src\gos/gos_x_threads.c **** 	case TIME_IMMEDIATE:
  60:..\..\ugfx_2.7\ugfx_2.7\src\gos/gos_x_threads.c **** 		delay = TIME_IMMEDIATE;
 484              		.loc 3 60 0
 485 001a 0023     		movs	r3, #0
 486 001c BB60     		str	r3, [r7, #8]
  61:..\..\ugfx_2.7\ugfx_2.7\src\gos/gos_x_threads.c **** 		break;
 487              		.loc 3 61 0
 488 001e 12E0     		b	.L31
 489              	.L30:
  62:..\..\ugfx_2.7\ugfx_2.7\src\gos/gos_x_threads.c **** 	case TIME_INFINITE:
  63:..\..\ugfx_2.7\ugfx_2.7\src\gos/gos_x_threads.c **** 		delay = TIME_INFINITE;
 490              		.loc 3 63 0
 491 0020 0123     		movs	r3, #1
 492 0022 5B42     		rsbs	r3, r3, #0
 493 0024 BB60     		str	r3, [r7, #8]
  64:..\..\ugfx_2.7\ugfx_2.7\src\gos/gos_x_threads.c **** 		break;
 494              		.loc 3 64 0
 495 0026 0EE0     		b	.L31
 496              	.L41:
  65:..\..\ugfx_2.7\ugfx_2.7\src\gos/gos_x_threads.c **** 	default:
  66:..\..\ugfx_2.7\ugfx_2.7\src\gos/gos_x_threads.c **** 		delay = gfxMillisecondsToTicks(ms);
 497              		.loc 3 66 0
 498 0028 3B68     		ldr	r3, [r7]
 499 002a 1800     		movs	r0, r3
 500 002c FFF7FEFF 		bl	gfxMillisecondsToTicks
 501 0030 0300     		movs	r3, r0
 502 0032 BB60     		str	r3, [r7, #8]
  67:..\..\ugfx_2.7\ugfx_2.7\src\gos/gos_x_threads.c **** 		if (!delay) delay = 1;
 503              		.loc 3 67 0
 504 0034 BB68     		ldr	r3, [r7, #8]
 505 0036 002B     		cmp	r3, #0
 506 0038 01D1     		bne	.L32
 507              		.loc 3 67 0 is_stmt 0 discriminator 1
 508 003a 0123     		movs	r3, #1
 509 003c BB60     		str	r3, [r7, #8]
 510              	.L32:
ARM GAS  C:\Users\megan\AppData\Local\Temp\ccVElWjj.s 			page 16


  68:..\..\ugfx_2.7\ugfx_2.7\src\gos/gos_x_threads.c **** 		starttm = gfxSystemTicks();
 511              		.loc 3 68 0 is_stmt 1
 512 003e FFF7FEFF 		bl	gfxSystemTicks
 513 0042 0300     		movs	r3, r0
 514 0044 FB60     		str	r3, [r7, #12]
 515              	.L31:
  69:..\..\ugfx_2.7\ugfx_2.7\src\gos/gos_x_threads.c **** 	}
  70:..\..\ugfx_2.7\ugfx_2.7\src\gos/gos_x_threads.c **** 
  71:..\..\ugfx_2.7\ugfx_2.7\src\gos/gos_x_threads.c **** 	INTERRUPTS_OFF();
  72:..\..\ugfx_2.7\ugfx_2.7\src\gos/gos_x_threads.c **** 	while (psem->cnt <= 0) {
 516              		.loc 3 72 0
 517 0046 16E0     		b	.L33
 518              	.L40:
  73:..\..\ugfx_2.7\ugfx_2.7\src\gos/gos_x_threads.c **** 		INTERRUPTS_ON();
  74:..\..\ugfx_2.7\ugfx_2.7\src\gos/gos_x_threads.c **** 		// Check if we have exceeded the defined delay
  75:..\..\ugfx_2.7\ugfx_2.7\src\gos/gos_x_threads.c **** 		switch (delay) {
 519              		.loc 3 75 0
 520 0048 BB68     		ldr	r3, [r7, #8]
 521 004a 002B     		cmp	r3, #0
 522 004c 02D0     		beq	.L35
 523 004e 0133     		adds	r3, r3, #1
 524 0050 0CD0     		beq	.L43
 525 0052 01E0     		b	.L42
 526              	.L35:
  76:..\..\ugfx_2.7\ugfx_2.7\src\gos/gos_x_threads.c **** 		case TIME_IMMEDIATE:
  77:..\..\ugfx_2.7\ugfx_2.7\src\gos/gos_x_threads.c **** 			return FALSE;
 527              		.loc 3 77 0
 528 0054 0023     		movs	r3, #0
 529 0056 1DE0     		b	.L37
 530              	.L42:
  78:..\..\ugfx_2.7\ugfx_2.7\src\gos/gos_x_threads.c **** 		case TIME_INFINITE:
  79:..\..\ugfx_2.7\ugfx_2.7\src\gos/gos_x_threads.c **** 			break;
  80:..\..\ugfx_2.7\ugfx_2.7\src\gos/gos_x_threads.c **** 		default:
  81:..\..\ugfx_2.7\ugfx_2.7\src\gos/gos_x_threads.c **** 			if (gfxSystemTicks() - starttm >= delay)
 531              		.loc 3 81 0
 532 0058 FFF7FEFF 		bl	gfxSystemTicks
 533 005c 0200     		movs	r2, r0
 534 005e FB68     		ldr	r3, [r7, #12]
 535 0060 D21A     		subs	r2, r2, r3
 536 0062 BB68     		ldr	r3, [r7, #8]
 537 0064 9A42     		cmp	r2, r3
 538 0066 03D3     		bcc	.L44
  82:..\..\ugfx_2.7\ugfx_2.7\src\gos/gos_x_threads.c **** 				return FALSE;
 539              		.loc 3 82 0
 540 0068 0023     		movs	r3, #0
 541 006a 13E0     		b	.L37
 542              	.L43:
  79:..\..\ugfx_2.7\ugfx_2.7\src\gos/gos_x_threads.c **** 		default:
 543              		.loc 3 79 0
 544 006c C046     		nop
 545 006e 00E0     		b	.L38
 546              	.L44:
  83:..\..\ugfx_2.7\ugfx_2.7\src\gos/gos_x_threads.c **** 			break;
 547              		.loc 3 83 0
 548 0070 C046     		nop
 549              	.L38:
  84:..\..\ugfx_2.7\ugfx_2.7\src\gos/gos_x_threads.c **** 		}
ARM GAS  C:\Users\megan\AppData\Local\Temp\ccVElWjj.s 			page 17


  85:..\..\ugfx_2.7\ugfx_2.7\src\gos/gos_x_threads.c **** 		gfxYield();
 550              		.loc 3 85 0
 551 0072 FFF7FEFF 		bl	gfxYield
 552              	.L33:
  72:..\..\ugfx_2.7\ugfx_2.7\src\gos/gos_x_threads.c **** 		INTERRUPTS_ON();
 553              		.loc 3 72 0
 554 0076 7B68     		ldr	r3, [r7, #4]
 555 0078 0022     		movs	r2, #0
 556 007a 9B5E     		ldrsh	r3, [r3, r2]
 557 007c 002B     		cmp	r3, #0
 558 007e E3DD     		ble	.L40
  86:..\..\ugfx_2.7\ugfx_2.7\src\gos/gos_x_threads.c **** 		INTERRUPTS_OFF();
  87:..\..\ugfx_2.7\ugfx_2.7\src\gos/gos_x_threads.c **** 	}
  88:..\..\ugfx_2.7\ugfx_2.7\src\gos/gos_x_threads.c **** 	psem->cnt--;
 559              		.loc 3 88 0
 560 0080 7B68     		ldr	r3, [r7, #4]
 561 0082 0022     		movs	r2, #0
 562 0084 9B5E     		ldrsh	r3, [r3, r2]
 563 0086 9BB2     		uxth	r3, r3
 564 0088 013B     		subs	r3, r3, #1
 565 008a 9BB2     		uxth	r3, r3
 566 008c 1AB2     		sxth	r2, r3
 567 008e 7B68     		ldr	r3, [r7, #4]
 568 0090 1A80     		strh	r2, [r3]
  89:..\..\ugfx_2.7\ugfx_2.7\src\gos/gos_x_threads.c **** 	INTERRUPTS_ON();
  90:..\..\ugfx_2.7\ugfx_2.7\src\gos/gos_x_threads.c **** 	return TRUE;
 569              		.loc 3 90 0
 570 0092 FF23     		movs	r3, #255
 571              	.L37:
  91:..\..\ugfx_2.7\ugfx_2.7\src\gos/gos_x_threads.c **** }
 572              		.loc 3 91 0
 573 0094 1800     		movs	r0, r3
 574 0096 BD46     		mov	sp, r7
 575 0098 04B0     		add	sp, sp, #16
 576              		@ sp needed
 577 009a 80BD     		pop	{r7, pc}
 578              		.cfi_endproc
 579              	.LFE12:
 580              		.size	gfxSemWait, .-gfxSemWait
 581              		.section	.text.gfxSemWaitI,"ax",%progbits
 582              		.align	2
 583              		.global	gfxSemWaitI
 584              		.code	16
 585              		.thumb_func
 586              		.type	gfxSemWaitI, %function
 587              	gfxSemWaitI:
 588              	.LFB13:
  92:..\..\ugfx_2.7\ugfx_2.7\src\gos/gos_x_threads.c **** 
  93:..\..\ugfx_2.7\ugfx_2.7\src\gos/gos_x_threads.c **** bool_t gfxSemWaitI(gfxSem *psem) {
 589              		.loc 3 93 0
 590              		.cfi_startproc
 591              		@ args = 0, pretend = 0, frame = 8
 592              		@ frame_needed = 1, uses_anonymous_args = 0
 593 0000 80B5     		push	{r7, lr}
 594              		.cfi_def_cfa_offset 8
 595              		.cfi_offset 7, -8
 596              		.cfi_offset 14, -4
ARM GAS  C:\Users\megan\AppData\Local\Temp\ccVElWjj.s 			page 18


 597 0002 82B0     		sub	sp, sp, #8
 598              		.cfi_def_cfa_offset 16
 599 0004 00AF     		add	r7, sp, #0
 600              		.cfi_def_cfa_register 7
 601 0006 7860     		str	r0, [r7, #4]
  94:..\..\ugfx_2.7\ugfx_2.7\src\gos/gos_x_threads.c **** 	if (psem->cnt <= 0)
 602              		.loc 3 94 0
 603 0008 7B68     		ldr	r3, [r7, #4]
 604 000a 0022     		movs	r2, #0
 605 000c 9B5E     		ldrsh	r3, [r3, r2]
 606 000e 002B     		cmp	r3, #0
 607 0010 01DC     		bgt	.L46
  95:..\..\ugfx_2.7\ugfx_2.7\src\gos/gos_x_threads.c **** 		return FALSE;
 608              		.loc 3 95 0
 609 0012 0023     		movs	r3, #0
 610 0014 09E0     		b	.L47
 611              	.L46:
  96:..\..\ugfx_2.7\ugfx_2.7\src\gos/gos_x_threads.c **** 	psem->cnt--;
 612              		.loc 3 96 0
 613 0016 7B68     		ldr	r3, [r7, #4]
 614 0018 0022     		movs	r2, #0
 615 001a 9B5E     		ldrsh	r3, [r3, r2]
 616 001c 9BB2     		uxth	r3, r3
 617 001e 013B     		subs	r3, r3, #1
 618 0020 9BB2     		uxth	r3, r3
 619 0022 1AB2     		sxth	r2, r3
 620 0024 7B68     		ldr	r3, [r7, #4]
 621 0026 1A80     		strh	r2, [r3]
  97:..\..\ugfx_2.7\ugfx_2.7\src\gos/gos_x_threads.c **** 	return TRUE;
 622              		.loc 3 97 0
 623 0028 FF23     		movs	r3, #255
 624              	.L47:
  98:..\..\ugfx_2.7\ugfx_2.7\src\gos/gos_x_threads.c **** }
 625              		.loc 3 98 0
 626 002a 1800     		movs	r0, r3
 627 002c BD46     		mov	sp, r7
 628 002e 02B0     		add	sp, sp, #8
 629              		@ sp needed
 630 0030 80BD     		pop	{r7, pc}
 631              		.cfi_endproc
 632              	.LFE13:
 633              		.size	gfxSemWaitI, .-gfxSemWaitI
 634 0032 C046     		.section	.text.gfxSemSignal,"ax",%progbits
 635              		.align	2
 636              		.global	gfxSemSignal
 637              		.code	16
 638              		.thumb_func
 639              		.type	gfxSemSignal, %function
 640              	gfxSemSignal:
 641              	.LFB14:
  99:..\..\ugfx_2.7\ugfx_2.7\src\gos/gos_x_threads.c **** 
 100:..\..\ugfx_2.7\ugfx_2.7\src\gos/gos_x_threads.c **** void gfxSemSignal(gfxSem *psem) {
 642              		.loc 3 100 0
 643              		.cfi_startproc
 644              		@ args = 0, pretend = 0, frame = 8
 645              		@ frame_needed = 1, uses_anonymous_args = 0
 646 0000 80B5     		push	{r7, lr}
ARM GAS  C:\Users\megan\AppData\Local\Temp\ccVElWjj.s 			page 19


 647              		.cfi_def_cfa_offset 8
 648              		.cfi_offset 7, -8
 649              		.cfi_offset 14, -4
 650 0002 82B0     		sub	sp, sp, #8
 651              		.cfi_def_cfa_offset 16
 652 0004 00AF     		add	r7, sp, #0
 653              		.cfi_def_cfa_register 7
 654 0006 7860     		str	r0, [r7, #4]
 101:..\..\ugfx_2.7\ugfx_2.7\src\gos/gos_x_threads.c **** 	INTERRUPTS_OFF();
 102:..\..\ugfx_2.7\ugfx_2.7\src\gos/gos_x_threads.c **** 	gfxSemSignalI(psem);
 655              		.loc 3 102 0
 656 0008 7B68     		ldr	r3, [r7, #4]
 657 000a 1800     		movs	r0, r3
 658 000c FFF7FEFF 		bl	gfxSemSignalI
 103:..\..\ugfx_2.7\ugfx_2.7\src\gos/gos_x_threads.c **** 	INTERRUPTS_ON();
 104:..\..\ugfx_2.7\ugfx_2.7\src\gos/gos_x_threads.c **** }
 659              		.loc 3 104 0
 660 0010 C046     		nop
 661 0012 BD46     		mov	sp, r7
 662 0014 02B0     		add	sp, sp, #8
 663              		@ sp needed
 664 0016 80BD     		pop	{r7, pc}
 665              		.cfi_endproc
 666              	.LFE14:
 667              		.size	gfxSemSignal, .-gfxSemSignal
 668              		.section	.text.gfxSemSignalI,"ax",%progbits
 669              		.align	2
 670              		.global	gfxSemSignalI
 671              		.code	16
 672              		.thumb_func
 673              		.type	gfxSemSignalI, %function
 674              	gfxSemSignalI:
 675              	.LFB15:
 105:..\..\ugfx_2.7\ugfx_2.7\src\gos/gos_x_threads.c **** 
 106:..\..\ugfx_2.7\ugfx_2.7\src\gos/gos_x_threads.c **** void gfxSemSignalI(gfxSem *psem) {
 676              		.loc 3 106 0
 677              		.cfi_startproc
 678              		@ args = 0, pretend = 0, frame = 8
 679              		@ frame_needed = 1, uses_anonymous_args = 0
 680 0000 80B5     		push	{r7, lr}
 681              		.cfi_def_cfa_offset 8
 682              		.cfi_offset 7, -8
 683              		.cfi_offset 14, -4
 684 0002 82B0     		sub	sp, sp, #8
 685              		.cfi_def_cfa_offset 16
 686 0004 00AF     		add	r7, sp, #0
 687              		.cfi_def_cfa_register 7
 688 0006 7860     		str	r0, [r7, #4]
 107:..\..\ugfx_2.7\ugfx_2.7\src\gos/gos_x_threads.c **** 	if (psem->cnt < psem->limit)
 689              		.loc 3 107 0
 690 0008 7B68     		ldr	r3, [r7, #4]
 691 000a 0022     		movs	r2, #0
 692 000c 9A5E     		ldrsh	r2, [r3, r2]
 693 000e 7B68     		ldr	r3, [r7, #4]
 694 0010 0221     		movs	r1, #2
 695 0012 5B5E     		ldrsh	r3, [r3, r1]
 696 0014 9A42     		cmp	r2, r3
ARM GAS  C:\Users\megan\AppData\Local\Temp\ccVElWjj.s 			page 20


 697 0016 08DA     		bge	.L51
 108:..\..\ugfx_2.7\ugfx_2.7\src\gos/gos_x_threads.c **** 		psem->cnt++;
 698              		.loc 3 108 0
 699 0018 7B68     		ldr	r3, [r7, #4]
 700 001a 0022     		movs	r2, #0
 701 001c 9B5E     		ldrsh	r3, [r3, r2]
 702 001e 9BB2     		uxth	r3, r3
 703 0020 0133     		adds	r3, r3, #1
 704 0022 9BB2     		uxth	r3, r3
 705 0024 1AB2     		sxth	r2, r3
 706 0026 7B68     		ldr	r3, [r7, #4]
 707 0028 1A80     		strh	r2, [r3]
 708              	.L51:
 109:..\..\ugfx_2.7\ugfx_2.7\src\gos/gos_x_threads.c **** }
 709              		.loc 3 109 0
 710 002a C046     		nop
 711 002c BD46     		mov	sp, r7
 712 002e 02B0     		add	sp, sp, #8
 713              		@ sp needed
 714 0030 80BD     		pop	{r7, pc}
 715              		.cfi_endproc
 716              	.LFE15:
 717              		.size	gfxSemSignalI, .-gfxSemSignalI
 718 0032 C046     		.section	.text.gfxSleepMilliseconds,"ax",%progbits
 719              		.align	2
 720              		.global	gfxSleepMilliseconds
 721              		.code	16
 722              		.thumb_func
 723              		.type	gfxSleepMilliseconds, %function
 724              	gfxSleepMilliseconds:
 725              	.LFB16:
 110:..\..\ugfx_2.7\ugfx_2.7\src\gos/gos_x_threads.c **** 
 111:..\..\ugfx_2.7\ugfx_2.7\src\gos/gos_x_threads.c **** /*********************************************************
 112:..\..\ugfx_2.7\ugfx_2.7\src\gos/gos_x_threads.c ****  * Sleep functions
 113:..\..\ugfx_2.7\ugfx_2.7\src\gos/gos_x_threads.c ****  *********************************************************/
 114:..\..\ugfx_2.7\ugfx_2.7\src\gos/gos_x_threads.c **** 
 115:..\..\ugfx_2.7\ugfx_2.7\src\gos/gos_x_threads.c **** void gfxSleepMilliseconds(delaytime_t ms) {
 726              		.loc 3 115 0
 727              		.cfi_startproc
 728              		@ args = 0, pretend = 0, frame = 16
 729              		@ frame_needed = 1, uses_anonymous_args = 0
 730 0000 80B5     		push	{r7, lr}
 731              		.cfi_def_cfa_offset 8
 732              		.cfi_offset 7, -8
 733              		.cfi_offset 14, -4
 734 0002 84B0     		sub	sp, sp, #16
 735              		.cfi_def_cfa_offset 24
 736 0004 00AF     		add	r7, sp, #0
 737              		.cfi_def_cfa_register 7
 738 0006 7860     		str	r0, [r7, #4]
 116:..\..\ugfx_2.7\ugfx_2.7\src\gos/gos_x_threads.c **** 	systemticks_t	starttm, delay;
 117:..\..\ugfx_2.7\ugfx_2.7\src\gos/gos_x_threads.c **** 
 118:..\..\ugfx_2.7\ugfx_2.7\src\gos/gos_x_threads.c **** 	// Safety first
 119:..\..\ugfx_2.7\ugfx_2.7\src\gos/gos_x_threads.c **** 	switch (ms) {
 739              		.loc 3 119 0
 740 0008 7B68     		ldr	r3, [r7, #4]
 741 000a 002B     		cmp	r3, #0
ARM GAS  C:\Users\megan\AppData\Local\Temp\ccVElWjj.s 			page 21


 742 000c 19D0     		beq	.L59
 743 000e 0133     		adds	r3, r3, #1
 744 0010 02D1     		bne	.L58
 745              	.L55:
 120:..\..\ugfx_2.7\ugfx_2.7\src\gos/gos_x_threads.c **** 	case TIME_IMMEDIATE:
 121:..\..\ugfx_2.7\ugfx_2.7\src\gos/gos_x_threads.c **** 		return;
 122:..\..\ugfx_2.7\ugfx_2.7\src\gos/gos_x_threads.c **** 	case TIME_INFINITE:
 123:..\..\ugfx_2.7\ugfx_2.7\src\gos/gos_x_threads.c **** 		while(1)
 124:..\..\ugfx_2.7\ugfx_2.7\src\gos/gos_x_threads.c **** 			gfxYield();
 746              		.loc 3 124 0 discriminator 1
 747 0012 FFF7FEFF 		bl	gfxYield
 748 0016 FCE7     		b	.L55
 749              	.L58:
 125:..\..\ugfx_2.7\ugfx_2.7\src\gos/gos_x_threads.c **** 		return;
 126:..\..\ugfx_2.7\ugfx_2.7\src\gos/gos_x_threads.c **** 	}
 127:..\..\ugfx_2.7\ugfx_2.7\src\gos/gos_x_threads.c **** 
 128:..\..\ugfx_2.7\ugfx_2.7\src\gos/gos_x_threads.c **** 	// Convert our delay to ticks
 129:..\..\ugfx_2.7\ugfx_2.7\src\gos/gos_x_threads.c **** 	delay = gfxMillisecondsToTicks(ms);
 750              		.loc 3 129 0
 751 0018 7B68     		ldr	r3, [r7, #4]
 752 001a 1800     		movs	r0, r3
 753 001c FFF7FEFF 		bl	gfxMillisecondsToTicks
 754 0020 0300     		movs	r3, r0
 755 0022 FB60     		str	r3, [r7, #12]
 130:..\..\ugfx_2.7\ugfx_2.7\src\gos/gos_x_threads.c **** 	starttm = gfxSystemTicks();
 756              		.loc 3 130 0
 757 0024 FFF7FEFF 		bl	gfxSystemTicks
 758 0028 0300     		movs	r3, r0
 759 002a BB60     		str	r3, [r7, #8]
 760              	.L57:
 131:..\..\ugfx_2.7\ugfx_2.7\src\gos/gos_x_threads.c **** 
 132:..\..\ugfx_2.7\ugfx_2.7\src\gos/gos_x_threads.c **** 	do {
 133:..\..\ugfx_2.7\ugfx_2.7\src\gos/gos_x_threads.c **** 		gfxYield();
 761              		.loc 3 133 0 discriminator 1
 762 002c FFF7FEFF 		bl	gfxYield
 134:..\..\ugfx_2.7\ugfx_2.7\src\gos/gos_x_threads.c **** 	} while (gfxSystemTicks() - starttm < delay);
 763              		.loc 3 134 0 discriminator 1
 764 0030 FFF7FEFF 		bl	gfxSystemTicks
 765 0034 0200     		movs	r2, r0
 766 0036 BB68     		ldr	r3, [r7, #8]
 767 0038 D21A     		subs	r2, r2, r3
 768 003a FB68     		ldr	r3, [r7, #12]
 769 003c 9A42     		cmp	r2, r3
 770 003e F5D3     		bcc	.L57
 771 0040 00E0     		b	.L52
 772              	.L59:
 121:..\..\ugfx_2.7\ugfx_2.7\src\gos/gos_x_threads.c **** 	case TIME_INFINITE:
 773              		.loc 3 121 0
 774 0042 C046     		nop
 775              	.L52:
 135:..\..\ugfx_2.7\ugfx_2.7\src\gos/gos_x_threads.c **** }
 776              		.loc 3 135 0
 777 0044 BD46     		mov	sp, r7
 778 0046 04B0     		add	sp, sp, #16
 779              		@ sp needed
 780 0048 80BD     		pop	{r7, pc}
 781              		.cfi_endproc
ARM GAS  C:\Users\megan\AppData\Local\Temp\ccVElWjj.s 			page 22


 782              	.LFE16:
 783              		.size	gfxSleepMilliseconds, .-gfxSleepMilliseconds
 784              		.global	__aeabi_uidiv
 785 004a C046     		.section	.text.gfxSleepMicroseconds,"ax",%progbits
 786              		.align	2
 787              		.global	gfxSleepMicroseconds
 788              		.code	16
 789              		.thumb_func
 790              		.type	gfxSleepMicroseconds, %function
 791              	gfxSleepMicroseconds:
 792              	.LFB17:
 136:..\..\ugfx_2.7\ugfx_2.7\src\gos/gos_x_threads.c **** 
 137:..\..\ugfx_2.7\ugfx_2.7\src\gos/gos_x_threads.c **** void gfxSleepMicroseconds(delaytime_t ms) {
 793              		.loc 3 137 0
 794              		.cfi_startproc
 795              		@ args = 0, pretend = 0, frame = 16
 796              		@ frame_needed = 1, uses_anonymous_args = 0
 797 0000 80B5     		push	{r7, lr}
 798              		.cfi_def_cfa_offset 8
 799              		.cfi_offset 7, -8
 800              		.cfi_offset 14, -4
 801 0002 84B0     		sub	sp, sp, #16
 802              		.cfi_def_cfa_offset 24
 803 0004 00AF     		add	r7, sp, #0
 804              		.cfi_def_cfa_register 7
 805 0006 7860     		str	r0, [r7, #4]
 138:..\..\ugfx_2.7\ugfx_2.7\src\gos/gos_x_threads.c **** 	systemticks_t	starttm, delay;
 139:..\..\ugfx_2.7\ugfx_2.7\src\gos/gos_x_threads.c **** 
 140:..\..\ugfx_2.7\ugfx_2.7\src\gos/gos_x_threads.c **** 	// Safety first
 141:..\..\ugfx_2.7\ugfx_2.7\src\gos/gos_x_threads.c **** 	switch (ms) {
 806              		.loc 3 141 0
 807 0008 7B68     		ldr	r3, [r7, #4]
 808 000a 002B     		cmp	r3, #0
 809 000c 1FD0     		beq	.L67
 810 000e 0133     		adds	r3, r3, #1
 811 0010 02D1     		bne	.L66
 812              	.L63:
 142:..\..\ugfx_2.7\ugfx_2.7\src\gos/gos_x_threads.c **** 	case TIME_IMMEDIATE:
 143:..\..\ugfx_2.7\ugfx_2.7\src\gos/gos_x_threads.c **** 		return;
 144:..\..\ugfx_2.7\ugfx_2.7\src\gos/gos_x_threads.c **** 	case TIME_INFINITE:
 145:..\..\ugfx_2.7\ugfx_2.7\src\gos/gos_x_threads.c **** 		while(1)
 146:..\..\ugfx_2.7\ugfx_2.7\src\gos/gos_x_threads.c **** 			gfxYield();
 813              		.loc 3 146 0 discriminator 1
 814 0012 FFF7FEFF 		bl	gfxYield
 815 0016 FCE7     		b	.L63
 816              	.L66:
 147:..\..\ugfx_2.7\ugfx_2.7\src\gos/gos_x_threads.c **** 		return;
 148:..\..\ugfx_2.7\ugfx_2.7\src\gos/gos_x_threads.c **** 	}
 149:..\..\ugfx_2.7\ugfx_2.7\src\gos/gos_x_threads.c **** 
 150:..\..\ugfx_2.7\ugfx_2.7\src\gos/gos_x_threads.c **** 	// Convert our delay to ticks
 151:..\..\ugfx_2.7\ugfx_2.7\src\gos/gos_x_threads.c **** 	delay = gfxMillisecondsToTicks(ms/1000);
 817              		.loc 3 151 0
 818 0018 7A68     		ldr	r2, [r7, #4]
 819 001a FA23     		movs	r3, #250
 820 001c 9900     		lsls	r1, r3, #2
 821 001e 1000     		movs	r0, r2
 822 0020 FFF7FEFF 		bl	__aeabi_uidiv
ARM GAS  C:\Users\megan\AppData\Local\Temp\ccVElWjj.s 			page 23


 823 0024 0300     		movs	r3, r0
 824 0026 1800     		movs	r0, r3
 825 0028 FFF7FEFF 		bl	gfxMillisecondsToTicks
 826 002c 0300     		movs	r3, r0
 827 002e FB60     		str	r3, [r7, #12]
 152:..\..\ugfx_2.7\ugfx_2.7\src\gos/gos_x_threads.c **** 	starttm = gfxSystemTicks();
 828              		.loc 3 152 0
 829 0030 FFF7FEFF 		bl	gfxSystemTicks
 830 0034 0300     		movs	r3, r0
 831 0036 BB60     		str	r3, [r7, #8]
 832              	.L65:
 153:..\..\ugfx_2.7\ugfx_2.7\src\gos/gos_x_threads.c **** 
 154:..\..\ugfx_2.7\ugfx_2.7\src\gos/gos_x_threads.c **** 	do {
 155:..\..\ugfx_2.7\ugfx_2.7\src\gos/gos_x_threads.c **** 		gfxYield();
 833              		.loc 3 155 0 discriminator 1
 834 0038 FFF7FEFF 		bl	gfxYield
 156:..\..\ugfx_2.7\ugfx_2.7\src\gos/gos_x_threads.c **** 	} while (gfxSystemTicks() - starttm < delay);
 835              		.loc 3 156 0 discriminator 1
 836 003c FFF7FEFF 		bl	gfxSystemTicks
 837 0040 0200     		movs	r2, r0
 838 0042 BB68     		ldr	r3, [r7, #8]
 839 0044 D21A     		subs	r2, r2, r3
 840 0046 FB68     		ldr	r3, [r7, #12]
 841 0048 9A42     		cmp	r2, r3
 842 004a F5D3     		bcc	.L65
 843 004c 00E0     		b	.L60
 844              	.L67:
 143:..\..\ugfx_2.7\ugfx_2.7\src\gos/gos_x_threads.c **** 	case TIME_INFINITE:
 845              		.loc 3 143 0
 846 004e C046     		nop
 847              	.L60:
 157:..\..\ugfx_2.7\ugfx_2.7\src\gos/gos_x_threads.c **** }
 848              		.loc 3 157 0
 849 0050 BD46     		mov	sp, r7
 850 0052 04B0     		add	sp, sp, #16
 851              		@ sp needed
 852 0054 80BD     		pop	{r7, pc}
 853              		.cfi_endproc
 854              	.LFE17:
 855              		.size	gfxSleepMicroseconds, .-gfxSleepMicroseconds
 856 0056 C046     		.bss
 857 0001 000000   		.align	2
 858              	readyQ:
 859 0004 00000000 		.space	8
 859      00000000 
 860              		.align	2
 861              	deadQ:
 862 000c 00000000 		.space	8
 862      00000000 
 863              		.comm	_gfxCurrentThread,4,4
 864              		.align	2
 865              	mainthread:
 866 0014 00000000 		.space	24
 866      00000000 
 866      00000000 
 866      00000000 
 866      00000000 
ARM GAS  C:\Users\megan\AppData\Local\Temp\ccVElWjj.s 			page 24


 867              		.align	2
 868              	maincxt:
 869 002c 00000000 		.space	92
 869      00000000 
 869      00000000 
 869      00000000 
 869      00000000 
 870              	stackdirup:
 871 0088 00       		.space	1
 872 0089 000000   		.align	2
 873              	jmpmask1:
 874 008c 00000000 		.space	4
 875              		.align	2
 876              	jmpmask2:
 877 0090 00000000 		.space	4
 878              		.align	2
 879              	stackbase:
 880 0094 00000000 		.space	4
 881              		.align	2
 882              	pframeinfo:
 883 0098 00000000 		.space	4
 884              		.section	.text._gfxGetStackState,"ax",%progbits
 885              		.align	2
 886              		.global	_gfxGetStackState
 887              		.code	16
 888              		.thumb_func
 889              		.type	_gfxGetStackState, %function
 890              	_gfxGetStackState:
 891              	.LFB18:
 158:..\..\ugfx_2.7\ugfx_2.7\src\gos/gos_x_threads.c **** 
 159:..\..\ugfx_2.7\ugfx_2.7\src\gos/gos_x_threads.c **** /*********************************************************
 160:..\..\ugfx_2.7\ugfx_2.7\src\gos/gos_x_threads.c ****  * Threading functions
 161:..\..\ugfx_2.7\ugfx_2.7\src\gos/gos_x_threads.c ****  *********************************************************/
 162:..\..\ugfx_2.7\ugfx_2.7\src\gos/gos_x_threads.c **** 
 163:..\..\ugfx_2.7\ugfx_2.7\src\gos/gos_x_threads.c **** /** For each scheduler the following need to be defined...
 164:..\..\ugfx_2.7\ugfx_2.7\src\gos/gos_x_threads.c ****  *
 165:..\..\ugfx_2.7\ugfx_2.7\src\gos/gos_x_threads.c ****  * void _gfxThreadsInit(void);								- Initialise the scheduler
 166:..\..\ugfx_2.7\ugfx_2.7\src\gos/gos_x_threads.c ****  * void _gfxStartThread(thread *oldt, thread *newt);		- Start a new thread
 167:..\..\ugfx_2.7\ugfx_2.7\src\gos/gos_x_threads.c ****  * void _gfxTaskSwitch(thread *oldt, thread *newt);			- Switch to a different thread
 168:..\..\ugfx_2.7\ugfx_2.7\src\gos/gos_x_threads.c ****  *
 169:..\..\ugfx_2.7\ugfx_2.7\src\gos/gos_x_threads.c ****  */
 170:..\..\ugfx_2.7\ugfx_2.7\src\gos/gos_x_threads.c **** 
 171:..\..\ugfx_2.7\ugfx_2.7\src\gos/gos_x_threads.c **** typedef struct thread {
 172:..\..\ugfx_2.7\ugfx_2.7\src\gos/gos_x_threads.c **** 	struct thread *	next;					// Next thread
 173:..\..\ugfx_2.7\ugfx_2.7\src\gos/gos_x_threads.c **** 	int				flags;					// Flags
 174:..\..\ugfx_2.7\ugfx_2.7\src\gos/gos_x_threads.c **** 		#define FLG_THD_ALLOC	0x0001
 175:..\..\ugfx_2.7\ugfx_2.7\src\gos/gos_x_threads.c **** 		#define FLG_THD_MAIN	0x0002
 176:..\..\ugfx_2.7\ugfx_2.7\src\gos/gos_x_threads.c **** 		#define FLG_THD_DEAD	0x0004
 177:..\..\ugfx_2.7\ugfx_2.7\src\gos/gos_x_threads.c **** 		#define FLG_THD_WAIT	0x0008
 178:..\..\ugfx_2.7\ugfx_2.7\src\gos/gos_x_threads.c **** 	size_t			size;					// Size of the thread stack (including this structure)
 179:..\..\ugfx_2.7\ugfx_2.7\src\gos/gos_x_threads.c **** 	threadreturn_t	(*fn)(void *param);		// Thread function
 180:..\..\ugfx_2.7\ugfx_2.7\src\gos/gos_x_threads.c **** 	void *			param;					// Parameter for the thread function
 181:..\..\ugfx_2.7\ugfx_2.7\src\gos/gos_x_threads.c **** 	void *			cxt;					// The current thread context.
 182:..\..\ugfx_2.7\ugfx_2.7\src\gos/gos_x_threads.c **** 	} thread;
 183:..\..\ugfx_2.7\ugfx_2.7\src\gos/gos_x_threads.c **** 
 184:..\..\ugfx_2.7\ugfx_2.7\src\gos/gos_x_threads.c **** typedef struct threadQ {
 185:..\..\ugfx_2.7\ugfx_2.7\src\gos/gos_x_threads.c **** 	thread *head;
ARM GAS  C:\Users\megan\AppData\Local\Temp\ccVElWjj.s 			page 25


 186:..\..\ugfx_2.7\ugfx_2.7\src\gos/gos_x_threads.c **** 	thread *tail;
 187:..\..\ugfx_2.7\ugfx_2.7\src\gos/gos_x_threads.c **** } threadQ;
 188:..\..\ugfx_2.7\ugfx_2.7\src\gos/gos_x_threads.c **** 
 189:..\..\ugfx_2.7\ugfx_2.7\src\gos/gos_x_threads.c **** static threadQ		readyQ;					// The list of ready threads
 190:..\..\ugfx_2.7\ugfx_2.7\src\gos/gos_x_threads.c **** static threadQ		deadQ;					// Where we put threads waiting to be deallocated
 191:..\..\ugfx_2.7\ugfx_2.7\src\gos/gos_x_threads.c **** thread *			_gfxCurrentThread;		// The current running thread - unfortunately this has to be non-sta
 192:..\..\ugfx_2.7\ugfx_2.7\src\gos/gos_x_threads.c **** static thread		mainthread;				// The main thread context
 193:..\..\ugfx_2.7\ugfx_2.7\src\gos/gos_x_threads.c **** 
 194:..\..\ugfx_2.7\ugfx_2.7\src\gos/gos_x_threads.c **** #undef GFX_THREADS_DONE
 195:..\..\ugfx_2.7\ugfx_2.7\src\gos/gos_x_threads.c **** 
 196:..\..\ugfx_2.7\ugfx_2.7\src\gos/gos_x_threads.c **** #if GFX_CPU == GFX_CPU_CORTEX_M0 || GFX_CPU == GFX_CPU_CORTEX_M1
 197:..\..\ugfx_2.7\ugfx_2.7\src\gos/gos_x_threads.c **** 	#include "gos_x_threads_cortexm01.h"
 198:..\..\ugfx_2.7\ugfx_2.7\src\gos/gos_x_threads.c **** #elif GFX_CPU == GFX_CPU_CORTEX_M3 || GFX_CPU == GFX_CPU_CORTEX_M4 || GFX_CPU == GFX_CPU_CORTEX_M7
 199:..\..\ugfx_2.7\ugfx_2.7\src\gos/gos_x_threads.c **** 	#include "gos_x_threads_cortexm347.h"
 200:..\..\ugfx_2.7\ugfx_2.7\src\gos/gos_x_threads.c **** #elif GFX_CPU == GFX_CPU_CORTEX_M4_FP || GFX_CPU == GFX_CPU_CORTEX_M7_FP
 201:..\..\ugfx_2.7\ugfx_2.7\src\gos/gos_x_threads.c **** 	#include "gos_x_threads_cortexm47fp.h"
 202:..\..\ugfx_2.7\ugfx_2.7\src\gos/gos_x_threads.c **** #endif
 203:..\..\ugfx_2.7\ugfx_2.7\src\gos/gos_x_threads.c **** 
 204:..\..\ugfx_2.7\ugfx_2.7\src\gos/gos_x_threads.c **** #ifndef GFX_THREADS_DONE
 205:..\..\ugfx_2.7\ugfx_2.7\src\gos/gos_x_threads.c **** 	#define GFX_THREADS_DONE
 206:..\..\ugfx_2.7\ugfx_2.7\src\gos/gos_x_threads.c **** 
 207:..\..\ugfx_2.7\ugfx_2.7\src\gos/gos_x_threads.c **** 	#include <string.h>				// Prototype for memcpy()
 208:..\..\ugfx_2.7\ugfx_2.7\src\gos/gos_x_threads.c **** 	#include <setjmp.h>
 209:..\..\ugfx_2.7\ugfx_2.7\src\gos/gos_x_threads.c **** 
 210:..\..\ugfx_2.7\ugfx_2.7\src\gos/gos_x_threads.c **** 	/**
 211:..\..\ugfx_2.7\ugfx_2.7\src\gos/gos_x_threads.c **** 	 * Some compilers define a _setjmp() and a setjmp().
 212:..\..\ugfx_2.7\ugfx_2.7\src\gos/gos_x_threads.c **** 	 * The difference between them is that setjmp() saves the signal masks.
 213:..\..\ugfx_2.7\ugfx_2.7\src\gos/gos_x_threads.c **** 	 * That is of no use to us so we prefer to use the _setjmp() methods.
 214:..\..\ugfx_2.7\ugfx_2.7\src\gos/gos_x_threads.c **** 	 * If they don't exist compile them to be the standard setjmp() function.
 215:..\..\ugfx_2.7\ugfx_2.7\src\gos/gos_x_threads.c **** 	 * Similarly for longjmp().
 216:..\..\ugfx_2.7\ugfx_2.7\src\gos/gos_x_threads.c **** 	 */
 217:..\..\ugfx_2.7\ugfx_2.7\src\gos/gos_x_threads.c **** 	#if (!defined(setjmp) && !defined(_setjmp)) || GFX_COMPILER == GFX_COMPILER_KEIL || GFX_COMPILER =
 218:..\..\ugfx_2.7\ugfx_2.7\src\gos/gos_x_threads.c **** 		#define CXT_SAVE 		setjmp
 219:..\..\ugfx_2.7\ugfx_2.7\src\gos/gos_x_threads.c **** 	#else
 220:..\..\ugfx_2.7\ugfx_2.7\src\gos/gos_x_threads.c **** 		#define CXT_SAVE 		_setjmp
 221:..\..\ugfx_2.7\ugfx_2.7\src\gos/gos_x_threads.c **** 	#endif
 222:..\..\ugfx_2.7\ugfx_2.7\src\gos/gos_x_threads.c **** 	#if (!defined(longjmp) && !defined(_longjmp)) || GFX_COMPILER == GFX_COMPILER_KEIL || GFX_COMPILER
 223:..\..\ugfx_2.7\ugfx_2.7\src\gos/gos_x_threads.c **** 		#define CXT_RESTORE 	longjmp
 224:..\..\ugfx_2.7\ugfx_2.7\src\gos/gos_x_threads.c **** 	#else
 225:..\..\ugfx_2.7\ugfx_2.7\src\gos/gos_x_threads.c **** 		#define CXT_RESTORE 	_longjmp
 226:..\..\ugfx_2.7\ugfx_2.7\src\gos/gos_x_threads.c **** 	#endif
 227:..\..\ugfx_2.7\ugfx_2.7\src\gos/gos_x_threads.c **** 
 228:..\..\ugfx_2.7\ugfx_2.7\src\gos/gos_x_threads.c **** 	// A place to store the main thread context.
 229:..\..\ugfx_2.7\ugfx_2.7\src\gos/gos_x_threads.c **** 	// All other threads will store the context directly after the thread structure (as part of the st
 230:..\..\ugfx_2.7\ugfx_2.7\src\gos/gos_x_threads.c **** 	static jmp_buf				maincxt;
 231:..\..\ugfx_2.7\ugfx_2.7\src\gos/gos_x_threads.c **** 
 232:..\..\ugfx_2.7\ugfx_2.7\src\gos/gos_x_threads.c **** 	/**
 233:..\..\ugfx_2.7\ugfx_2.7\src\gos/gos_x_threads.c **** 	 * There are some compilers we know how they store the jmpbuf. For those
 234:..\..\ugfx_2.7\ugfx_2.7\src\gos/gos_x_threads.c **** 	 * we can use the constant macro definitions. For others we have to "auto-detect".
 235:..\..\ugfx_2.7\ugfx_2.7\src\gos/gos_x_threads.c **** 	 * Auto-detection is hairy and there is no guarantee it will work on all architectures.
 236:..\..\ugfx_2.7\ugfx_2.7\src\gos/gos_x_threads.c **** 	 * For those it doesn't - read the compiler manuals and the library source code to
 237:..\..\ugfx_2.7\ugfx_2.7\src\gos/gos_x_threads.c **** 	 * work out the correct macro values.
 238:..\..\ugfx_2.7\ugfx_2.7\src\gos/gos_x_threads.c **** 	 * You can use the debugger to work out the values for your compiler and put them here.
 239:..\..\ugfx_2.7\ugfx_2.7\src\gos/gos_x_threads.c **** 	 * Defining these macros as constant values makes the system behaviour guaranteed but also
 240:..\..\ugfx_2.7\ugfx_2.7\src\gos/gos_x_threads.c **** 	 * makes your code compiler and cpu architecture dependent. It also saves a heap of code
 241:..\..\ugfx_2.7\ugfx_2.7\src\gos/gos_x_threads.c **** 	 * and a few bytes of RAM.
 242:..\..\ugfx_2.7\ugfx_2.7\src\gos/gos_x_threads.c **** 	 *
ARM GAS  C:\Users\megan\AppData\Local\Temp\ccVElWjj.s 			page 26


 243:..\..\ugfx_2.7\ugfx_2.7\src\gos/gos_x_threads.c **** 	 * MACROS:
 244:..\..\ugfx_2.7\ugfx_2.7\src\gos/gos_x_threads.c **** 	 *
 245:..\..\ugfx_2.7\ugfx_2.7\src\gos/gos_x_threads.c **** 	 *	AUTO_DETECT_STACKFRAME	TRUE/FALSE			- TRUE to auto-detect stack frame structure
 246:..\..\ugfx_2.7\ugfx_2.7\src\gos/gos_x_threads.c **** 	 *	STACK_DIR_UP			Macro/bool_t		- TRUE if the stack grows up instead of down
 247:..\..\ugfx_2.7\ugfx_2.7\src\gos/gos_x_threads.c **** 	 *	MASK1					Macro/uint32_t		- The 1st mask of jmp_buf elements that need relocation
 248:..\..\ugfx_2.7\ugfx_2.7\src\gos/gos_x_threads.c **** 	 *	MASK2					Macro/uint32_t		- The 2nd mask of jmp_buf elements that need relocation
 249:..\..\ugfx_2.7\ugfx_2.7\src\gos/gos_x_threads.c **** 	 *	STACK_BASE				Macro/size_t		- The base of the stack frame relative to the local variables
 250:..\..\ugfx_2.7\ugfx_2.7\src\gos/gos_x_threads.c **** 	 *	_gfxThreadsInit()		Macro/Function		- Initialise the scheduler
 251:..\..\ugfx_2.7\ugfx_2.7\src\gos/gos_x_threads.c **** 	 *
 252:..\..\ugfx_2.7\ugfx_2.7\src\gos/gos_x_threads.c **** 	 */
 253:..\..\ugfx_2.7\ugfx_2.7\src\gos/gos_x_threads.c **** 	#if GFX_COMPILER == GFX_COMPILER_MINGW32
 254:..\..\ugfx_2.7\ugfx_2.7\src\gos/gos_x_threads.c **** 
 255:..\..\ugfx_2.7\ugfx_2.7\src\gos/gos_x_threads.c **** 		#define AUTO_DETECT_STACKFRAME	FALSE
 256:..\..\ugfx_2.7\ugfx_2.7\src\gos/gos_x_threads.c **** 		#define STACK_DIR_UP		FALSE
 257:..\..\ugfx_2.7\ugfx_2.7\src\gos/gos_x_threads.c **** 		#define MASK1				0x00000011
 258:..\..\ugfx_2.7\ugfx_2.7\src\gos/gos_x_threads.c **** 		#define MASK2				0x00000000
 259:..\..\ugfx_2.7\ugfx_2.7\src\gos/gos_x_threads.c **** 		#define STACK_BASE			12
 260:..\..\ugfx_2.7\ugfx_2.7\src\gos/gos_x_threads.c **** 		#define _gfxThreadsInit()	mainthread.cxt = maincxt
 261:..\..\ugfx_2.7\ugfx_2.7\src\gos/gos_x_threads.c **** 
 262:..\..\ugfx_2.7\ugfx_2.7\src\gos/gos_x_threads.c **** 	#else
 263:..\..\ugfx_2.7\ugfx_2.7\src\gos/gos_x_threads.c **** 
 264:..\..\ugfx_2.7\ugfx_2.7\src\gos/gos_x_threads.c **** 		// Use auto-detection of the stack frame format
 265:..\..\ugfx_2.7\ugfx_2.7\src\gos/gos_x_threads.c **** 		// Assumes all the relevant stuff to be relocated is in the first 256 bytes of the jmpbuf.
 266:..\..\ugfx_2.7\ugfx_2.7\src\gos/gos_x_threads.c **** 		#define AUTO_DETECT_STACKFRAME	TRUE
 267:..\..\ugfx_2.7\ugfx_2.7\src\gos/gos_x_threads.c **** 		#define STACK_DIR_UP		stackdirup			// TRUE if the stack grow up instead of down
 268:..\..\ugfx_2.7\ugfx_2.7\src\gos/gos_x_threads.c **** 		#define MASK1				jmpmask1			// The 1st mask of jmp_buf elements that need relocation
 269:..\..\ugfx_2.7\ugfx_2.7\src\gos/gos_x_threads.c **** 		#define MASK2				jmpmask2			// The 2nd mask of jmp_buf elements that need relocation
 270:..\..\ugfx_2.7\ugfx_2.7\src\gos/gos_x_threads.c **** 		#define STACK_BASE			stackbase			// The base of the stack frame relative to the local variables
 271:..\..\ugfx_2.7\ugfx_2.7\src\gos/gos_x_threads.c **** 
 272:..\..\ugfx_2.7\ugfx_2.7\src\gos/gos_x_threads.c **** 		// The structure for the saved stack frame information
 273:..\..\ugfx_2.7\ugfx_2.7\src\gos/gos_x_threads.c **** 		typedef struct saveloc {
 274:..\..\ugfx_2.7\ugfx_2.7\src\gos/gos_x_threads.c **** 			char *		localptr;
 275:..\..\ugfx_2.7\ugfx_2.7\src\gos/gos_x_threads.c **** 			jmp_buf		cxt;
 276:..\..\ugfx_2.7\ugfx_2.7\src\gos/gos_x_threads.c **** 		} saveloc;
 277:..\..\ugfx_2.7\ugfx_2.7\src\gos/gos_x_threads.c **** 
 278:..\..\ugfx_2.7\ugfx_2.7\src\gos/gos_x_threads.c **** 		static bool_t		stackdirup;
 279:..\..\ugfx_2.7\ugfx_2.7\src\gos/gos_x_threads.c **** 		static uint32_t		jmpmask1;
 280:..\..\ugfx_2.7\ugfx_2.7\src\gos/gos_x_threads.c **** 		static uint32_t		jmpmask2;
 281:..\..\ugfx_2.7\ugfx_2.7\src\gos/gos_x_threads.c **** 		static size_t		stackbase;
 282:..\..\ugfx_2.7\ugfx_2.7\src\gos/gos_x_threads.c **** 		static saveloc		*pframeinfo;
 283:..\..\ugfx_2.7\ugfx_2.7\src\gos/gos_x_threads.c **** 
 284:..\..\ugfx_2.7\ugfx_2.7\src\gos/gos_x_threads.c **** 		// These two functions are not static to prevent the compiler removing them as functions
 285:..\..\ugfx_2.7\ugfx_2.7\src\gos/gos_x_threads.c **** 		void _gfxGetStackState(void) {
 892              		.loc 3 285 0
 893              		.cfi_startproc
 894              		@ args = 0, pretend = 0, frame = 8
 895              		@ frame_needed = 1, uses_anonymous_args = 0
 896 0000 80B5     		push	{r7, lr}
 897              		.cfi_def_cfa_offset 8
 898              		.cfi_offset 7, -8
 899              		.cfi_offset 14, -4
 900 0002 82B0     		sub	sp, sp, #8
 901              		.cfi_def_cfa_offset 16
 902 0004 00AF     		add	r7, sp, #0
 903              		.cfi_def_cfa_register 7
 286:..\..\ugfx_2.7\ugfx_2.7\src\gos/gos_x_threads.c **** 			char *c;
 287:..\..\ugfx_2.7\ugfx_2.7\src\gos/gos_x_threads.c **** 			pframeinfo->localptr = (char *)&c;
ARM GAS  C:\Users\megan\AppData\Local\Temp\ccVElWjj.s 			page 27


 904              		.loc 3 287 0
 905 0006 074B     		ldr	r3, .L69
 906 0008 1B68     		ldr	r3, [r3]
 907 000a 3A1D     		adds	r2, r7, #4
 908 000c 1A60     		str	r2, [r3]
 288:..\..\ugfx_2.7\ugfx_2.7\src\gos/gos_x_threads.c **** 			CXT_SAVE(pframeinfo->cxt);
 909              		.loc 3 288 0
 910 000e 054B     		ldr	r3, .L69
 911 0010 1B68     		ldr	r3, [r3]
 912 0012 0433     		adds	r3, r3, #4
 913 0014 1800     		movs	r0, r3
 914 0016 FFF7FEFF 		bl	setjmp
 289:..\..\ugfx_2.7\ugfx_2.7\src\gos/gos_x_threads.c **** 		}
 915              		.loc 3 289 0
 916 001a C046     		nop
 917 001c BD46     		mov	sp, r7
 918 001e 02B0     		add	sp, sp, #8
 919              		@ sp needed
 920 0020 80BD     		pop	{r7, pc}
 921              	.L70:
 922 0022 C046     		.align	2
 923              	.L69:
 924 0024 98000000 		.word	pframeinfo
 925              		.cfi_endproc
 926              	.LFE18:
 927              		.size	_gfxGetStackState, .-_gfxGetStackState
 928              		.section	.text._gfxGetStackStateInFn,"ax",%progbits
 929              		.align	2
 930              		.global	_gfxGetStackStateInFn
 931              		.code	16
 932              		.thumb_func
 933              		.type	_gfxGetStackStateInFn, %function
 934              	_gfxGetStackStateInFn:
 935              	.LFB19:
 290:..\..\ugfx_2.7\ugfx_2.7\src\gos/gos_x_threads.c **** 		void _gfxGetStackStateInFn(void) {
 936              		.loc 3 290 0
 937              		.cfi_startproc
 938              		@ args = 0, pretend = 0, frame = 0
 939              		@ frame_needed = 1, uses_anonymous_args = 0
 940 0000 80B5     		push	{r7, lr}
 941              		.cfi_def_cfa_offset 8
 942              		.cfi_offset 7, -8
 943              		.cfi_offset 14, -4
 944 0002 00AF     		add	r7, sp, #0
 945              		.cfi_def_cfa_register 7
 291:..\..\ugfx_2.7\ugfx_2.7\src\gos/gos_x_threads.c **** 			pframeinfo++;
 946              		.loc 3 291 0
 947 0004 084B     		ldr	r3, .L72
 948 0006 1B68     		ldr	r3, [r3]
 949 0008 6033     		adds	r3, r3, #96
 950 000a 1A00     		movs	r2, r3
 951 000c 064B     		ldr	r3, .L72
 952 000e 1A60     		str	r2, [r3]
 292:..\..\ugfx_2.7\ugfx_2.7\src\gos/gos_x_threads.c **** 			_gfxGetStackState();
 953              		.loc 3 292 0
 954 0010 FFF7FEFF 		bl	_gfxGetStackState
 293:..\..\ugfx_2.7\ugfx_2.7\src\gos/gos_x_threads.c **** 			pframeinfo--;
ARM GAS  C:\Users\megan\AppData\Local\Temp\ccVElWjj.s 			page 28


 955              		.loc 3 293 0
 956 0014 044B     		ldr	r3, .L72
 957 0016 1B68     		ldr	r3, [r3]
 958 0018 603B     		subs	r3, r3, #96
 959 001a 1A00     		movs	r2, r3
 960 001c 024B     		ldr	r3, .L72
 961 001e 1A60     		str	r2, [r3]
 294:..\..\ugfx_2.7\ugfx_2.7\src\gos/gos_x_threads.c **** 		}
 962              		.loc 3 294 0
 963 0020 C046     		nop
 964 0022 BD46     		mov	sp, r7
 965              		@ sp needed
 966 0024 80BD     		pop	{r7, pc}
 967              	.L73:
 968 0026 C046     		.align	2
 969              	.L72:
 970 0028 98000000 		.word	pframeinfo
 971              		.cfi_endproc
 972              	.LFE19:
 973              		.size	_gfxGetStackStateInFn, .-_gfxGetStackStateInFn
 974              		.section	.text._gfxThreadsInit,"ax",%progbits
 975              		.align	2
 976              		.code	16
 977              		.thumb_func
 978              		.type	_gfxThreadsInit, %function
 979              	_gfxThreadsInit:
 980              	.LFB20:
 295:..\..\ugfx_2.7\ugfx_2.7\src\gos/gos_x_threads.c **** 		static void _gfxThreadsInit(void) {
 981              		.loc 3 295 0
 982              		.cfi_startproc
 983              		@ args = 0, pretend = 0, frame = 216
 984              		@ frame_needed = 1, uses_anonymous_args = 0
 985 0000 80B5     		push	{r7, lr}
 986              		.cfi_def_cfa_offset 8
 987              		.cfi_offset 7, -8
 988              		.cfi_offset 14, -4
 989 0002 B6B0     		sub	sp, sp, #216
 990              		.cfi_def_cfa_offset 224
 991 0004 00AF     		add	r7, sp, #0
 992              		.cfi_def_cfa_register 7
 296:..\..\ugfx_2.7\ugfx_2.7\src\gos/gos_x_threads.c **** 			uint32_t	i;
 297:..\..\ugfx_2.7\ugfx_2.7\src\gos/gos_x_threads.c **** 			char **		pout;
 298:..\..\ugfx_2.7\ugfx_2.7\src\gos/gos_x_threads.c **** 			char **		pin;
 299:..\..\ugfx_2.7\ugfx_2.7\src\gos/gos_x_threads.c **** 			size_t		diff;
 300:..\..\ugfx_2.7\ugfx_2.7\src\gos/gos_x_threads.c **** 			char *		framebase;
 301:..\..\ugfx_2.7\ugfx_2.7\src\gos/gos_x_threads.c **** 			saveloc		tmpsaveloc[2];
 302:..\..\ugfx_2.7\ugfx_2.7\src\gos/gos_x_threads.c **** 
 303:..\..\ugfx_2.7\ugfx_2.7\src\gos/gos_x_threads.c **** 			// Create the main thread context
 304:..\..\ugfx_2.7\ugfx_2.7\src\gos/gos_x_threads.c **** 			mainthread.cxt = maincxt;
 993              		.loc 3 304 0
 994 0006 664B     		ldr	r3, .L84
 995 0008 664A     		ldr	r2, .L84+4
 996 000a 5A61     		str	r2, [r3, #20]
 305:..\..\ugfx_2.7\ugfx_2.7\src\gos/gos_x_threads.c **** 
 306:..\..\ugfx_2.7\ugfx_2.7\src\gos/gos_x_threads.c **** 			// Allocate a buffer to store our test data
 307:..\..\ugfx_2.7\ugfx_2.7\src\gos/gos_x_threads.c **** 			pframeinfo = tmpsaveloc;
 997              		.loc 3 307 0
ARM GAS  C:\Users\megan\AppData\Local\Temp\ccVElWjj.s 			page 29


 998 000c 664B     		ldr	r3, .L84+8
 999 000e 3A1D     		adds	r2, r7, #4
 1000 0010 1A60     		str	r2, [r3]
 308:..\..\ugfx_2.7\ugfx_2.7\src\gos/gos_x_threads.c **** 
 309:..\..\ugfx_2.7\ugfx_2.7\src\gos/gos_x_threads.c **** 			// Get details of the stack frame from within a function
 310:..\..\ugfx_2.7\ugfx_2.7\src\gos/gos_x_threads.c **** 			_gfxGetStackStateInFn();
 1001              		.loc 3 310 0
 1002 0012 FFF7FEFF 		bl	_gfxGetStackStateInFn
 311:..\..\ugfx_2.7\ugfx_2.7\src\gos/gos_x_threads.c **** 
 312:..\..\ugfx_2.7\ugfx_2.7\src\gos/gos_x_threads.c **** 			// Get details of the stack frame outside the function
 313:..\..\ugfx_2.7\ugfx_2.7\src\gos/gos_x_threads.c **** 			_gfxGetStackState();
 1003              		.loc 3 313 0
 1004 0016 FFF7FEFF 		bl	_gfxGetStackState
 314:..\..\ugfx_2.7\ugfx_2.7\src\gos/gos_x_threads.c **** 
 315:..\..\ugfx_2.7\ugfx_2.7\src\gos/gos_x_threads.c **** 			/* Work out the frame entries to relocate by treating the jump buffer as an array of pointers */
 316:..\..\ugfx_2.7\ugfx_2.7\src\gos/gos_x_threads.c **** 			stackdirup =  pframeinfo[1].localptr > pframeinfo[0].localptr;
 1005              		.loc 3 316 0
 1006 001a 634B     		ldr	r3, .L84+8
 1007 001c 1B68     		ldr	r3, [r3]
 1008 001e 6033     		adds	r3, r3, #96
 1009 0020 1A68     		ldr	r2, [r3]
 1010 0022 614B     		ldr	r3, .L84+8
 1011 0024 1B68     		ldr	r3, [r3]
 1012 0026 1B68     		ldr	r3, [r3]
 1013 0028 9342     		cmp	r3, r2
 1014 002a 9B41     		sbcs	r3, r3, r3
 1015 002c 5B42     		rsbs	r3, r3, #0
 1016 002e DBB2     		uxtb	r3, r3
 1017 0030 1A00     		movs	r2, r3
 1018 0032 5E4B     		ldr	r3, .L84+12
 1019 0034 1A70     		strb	r2, [r3]
 317:..\..\ugfx_2.7\ugfx_2.7\src\gos/gos_x_threads.c **** 			pout = (char **)pframeinfo[0].cxt;
 1020              		.loc 3 317 0
 1021 0036 5C4B     		ldr	r3, .L84+8
 1022 0038 1B68     		ldr	r3, [r3]
 1023 003a 0433     		adds	r3, r3, #4
 1024 003c D022     		movs	r2, #208
 1025 003e BA18     		adds	r2, r7, r2
 1026 0040 1360     		str	r3, [r2]
 318:..\..\ugfx_2.7\ugfx_2.7\src\gos/gos_x_threads.c **** 			pin =  (char **)pframeinfo[1].cxt;
 1027              		.loc 3 318 0
 1028 0042 594B     		ldr	r3, .L84+8
 1029 0044 1B68     		ldr	r3, [r3]
 1030 0046 6033     		adds	r3, r3, #96
 1031 0048 0433     		adds	r3, r3, #4
 1032 004a CC22     		movs	r2, #204
 1033 004c BA18     		adds	r2, r7, r2
 1034 004e 1360     		str	r3, [r2]
 319:..\..\ugfx_2.7\ugfx_2.7\src\gos/gos_x_threads.c **** 			diff = pframeinfo[0].localptr - pframeinfo[1].localptr;
 1035              		.loc 3 319 0
 1036 0050 554B     		ldr	r3, .L84+8
 1037 0052 1B68     		ldr	r3, [r3]
 1038 0054 1B68     		ldr	r3, [r3]
 1039 0056 1A00     		movs	r2, r3
 1040 0058 534B     		ldr	r3, .L84+8
 1041 005a 1B68     		ldr	r3, [r3]
 1042 005c 6033     		adds	r3, r3, #96
ARM GAS  C:\Users\megan\AppData\Local\Temp\ccVElWjj.s 			page 30


 1043 005e 1B68     		ldr	r3, [r3]
 1044 0060 D31A     		subs	r3, r2, r3
 1045 0062 C422     		movs	r2, #196
 1046 0064 BA18     		adds	r2, r7, r2
 1047 0066 1360     		str	r3, [r2]
 320:..\..\ugfx_2.7\ugfx_2.7\src\gos/gos_x_threads.c **** 			framebase = pframeinfo[0].localptr;
 1048              		.loc 3 320 0
 1049 0068 4F4B     		ldr	r3, .L84+8
 1050 006a 1B68     		ldr	r3, [r3]
 1051 006c 1B68     		ldr	r3, [r3]
 1052 006e C822     		movs	r2, #200
 1053 0070 BA18     		adds	r2, r7, r2
 1054 0072 1360     		str	r3, [r2]
 321:..\..\ugfx_2.7\ugfx_2.7\src\gos/gos_x_threads.c **** 			jmpmask1 = jmpmask2 = 0;
 1055              		.loc 3 321 0
 1056 0074 4E4B     		ldr	r3, .L84+16
 1057 0076 0022     		movs	r2, #0
 1058 0078 1A60     		str	r2, [r3]
 1059 007a 4D4B     		ldr	r3, .L84+16
 1060 007c 1A68     		ldr	r2, [r3]
 1061 007e 4D4B     		ldr	r3, .L84+20
 1062 0080 1A60     		str	r2, [r3]
 322:..\..\ugfx_2.7\ugfx_2.7\src\gos/gos_x_threads.c **** 			for (i = 0; i < sizeof(jmp_buf)/sizeof(char *); i++, pout++, pin++) {
 1063              		.loc 3 322 0
 1064 0082 0023     		movs	r3, #0
 1065 0084 D422     		movs	r2, #212
 1066 0086 BA18     		adds	r2, r7, r2
 1067 0088 1360     		str	r3, [r2]
 1068 008a 68E0     		b	.L75
 1069              	.L81:
 323:..\..\ugfx_2.7\ugfx_2.7\src\gos/gos_x_threads.c **** 				if ((size_t)(*pout - *pin) == diff) {
 1070              		.loc 3 323 0
 1071 008c D023     		movs	r3, #208
 1072 008e FB18     		adds	r3, r7, r3
 1073 0090 1B68     		ldr	r3, [r3]
 1074 0092 1B68     		ldr	r3, [r3]
 1075 0094 1A00     		movs	r2, r3
 1076 0096 CC23     		movs	r3, #204
 1077 0098 FB18     		adds	r3, r7, r3
 1078 009a 1B68     		ldr	r3, [r3]
 1079 009c 1B68     		ldr	r3, [r3]
 1080 009e D31A     		subs	r3, r2, r3
 1081 00a0 1A00     		movs	r2, r3
 1082 00a2 C423     		movs	r3, #196
 1083 00a4 FB18     		adds	r3, r7, r3
 1084 00a6 1B68     		ldr	r3, [r3]
 1085 00a8 9A42     		cmp	r2, r3
 1086 00aa 43D1     		bne	.L76
 324:..\..\ugfx_2.7\ugfx_2.7\src\gos/gos_x_threads.c **** 					if (i < 32)
 1087              		.loc 3 324 0
 1088 00ac D423     		movs	r3, #212
 1089 00ae FB18     		adds	r3, r7, r3
 1090 00b0 1B68     		ldr	r3, [r3]
 1091 00b2 1F2B     		cmp	r3, #31
 1092 00b4 0CD8     		bhi	.L77
 325:..\..\ugfx_2.7\ugfx_2.7\src\gos/gos_x_threads.c **** 						jmpmask1 |= 1 << i;
 1093              		.loc 3 325 0
ARM GAS  C:\Users\megan\AppData\Local\Temp\ccVElWjj.s 			page 31


 1094 00b6 0122     		movs	r2, #1
 1095 00b8 D423     		movs	r3, #212
 1096 00ba FB18     		adds	r3, r7, r3
 1097 00bc 1B68     		ldr	r3, [r3]
 1098 00be 9A40     		lsls	r2, r2, r3
 1099 00c0 1300     		movs	r3, r2
 1100 00c2 1A00     		movs	r2, r3
 1101 00c4 3B4B     		ldr	r3, .L84+20
 1102 00c6 1B68     		ldr	r3, [r3]
 1103 00c8 1A43     		orrs	r2, r3
 1104 00ca 3A4B     		ldr	r3, .L84+20
 1105 00cc 1A60     		str	r2, [r3]
 1106 00ce 0CE0     		b	.L78
 1107              	.L77:
 326:..\..\ugfx_2.7\ugfx_2.7\src\gos/gos_x_threads.c **** 					else
 327:..\..\ugfx_2.7\ugfx_2.7\src\gos/gos_x_threads.c **** 						jmpmask2 |= 1 << (i-32);
 1108              		.loc 3 327 0
 1109 00d0 D423     		movs	r3, #212
 1110 00d2 FB18     		adds	r3, r7, r3
 1111 00d4 1B68     		ldr	r3, [r3]
 1112 00d6 203B     		subs	r3, r3, #32
 1113 00d8 0122     		movs	r2, #1
 1114 00da 9A40     		lsls	r2, r2, r3
 1115 00dc 1300     		movs	r3, r2
 1116 00de 1A00     		movs	r2, r3
 1117 00e0 334B     		ldr	r3, .L84+16
 1118 00e2 1B68     		ldr	r3, [r3]
 1119 00e4 1A43     		orrs	r2, r3
 1120 00e6 324B     		ldr	r3, .L84+16
 1121 00e8 1A60     		str	r2, [r3]
 1122              	.L78:
 328:..\..\ugfx_2.7\ugfx_2.7\src\gos/gos_x_threads.c **** 
 329:..\..\ugfx_2.7\ugfx_2.7\src\gos/gos_x_threads.c **** 					if (stackdirup) {
 1123              		.loc 3 329 0
 1124 00ea 304B     		ldr	r3, .L84+12
 1125 00ec 1B78     		ldrb	r3, [r3]
 1126 00ee 002B     		cmp	r3, #0
 1127 00f0 10D0     		beq	.L79
 330:..\..\ugfx_2.7\ugfx_2.7\src\gos/gos_x_threads.c **** 						if (framebase > *pout)
 1128              		.loc 3 330 0
 1129 00f2 D023     		movs	r3, #208
 1130 00f4 FB18     		adds	r3, r7, r3
 1131 00f6 1B68     		ldr	r3, [r3]
 1132 00f8 1A68     		ldr	r2, [r3]
 1133 00fa C823     		movs	r3, #200
 1134 00fc FB18     		adds	r3, r7, r3
 1135 00fe 1B68     		ldr	r3, [r3]
 1136 0100 9A42     		cmp	r2, r3
 1137 0102 17D2     		bcs	.L76
 331:..\..\ugfx_2.7\ugfx_2.7\src\gos/gos_x_threads.c **** 							framebase = *pout;
 1138              		.loc 3 331 0
 1139 0104 D023     		movs	r3, #208
 1140 0106 FB18     		adds	r3, r7, r3
 1141 0108 1B68     		ldr	r3, [r3]
 1142 010a 1B68     		ldr	r3, [r3]
 1143 010c C822     		movs	r2, #200
 1144 010e BA18     		adds	r2, r7, r2
ARM GAS  C:\Users\megan\AppData\Local\Temp\ccVElWjj.s 			page 32


 1145 0110 1360     		str	r3, [r2]
 1146 0112 0FE0     		b	.L76
 1147              	.L79:
 332:..\..\ugfx_2.7\ugfx_2.7\src\gos/gos_x_threads.c **** 					} else {
 333:..\..\ugfx_2.7\ugfx_2.7\src\gos/gos_x_threads.c **** 						if (framebase < *pout)
 1148              		.loc 3 333 0
 1149 0114 D023     		movs	r3, #208
 1150 0116 FB18     		adds	r3, r7, r3
 1151 0118 1B68     		ldr	r3, [r3]
 1152 011a 1A68     		ldr	r2, [r3]
 1153 011c C823     		movs	r3, #200
 1154 011e FB18     		adds	r3, r7, r3
 1155 0120 1B68     		ldr	r3, [r3]
 1156 0122 9A42     		cmp	r2, r3
 1157 0124 06D9     		bls	.L76
 334:..\..\ugfx_2.7\ugfx_2.7\src\gos/gos_x_threads.c **** 							framebase = *pout;
 1158              		.loc 3 334 0
 1159 0126 D023     		movs	r3, #208
 1160 0128 FB18     		adds	r3, r7, r3
 1161 012a 1B68     		ldr	r3, [r3]
 1162 012c 1B68     		ldr	r3, [r3]
 1163 012e C822     		movs	r2, #200
 1164 0130 BA18     		adds	r2, r7, r2
 1165 0132 1360     		str	r3, [r2]
 1166              	.L76:
 322:..\..\ugfx_2.7\ugfx_2.7\src\gos/gos_x_threads.c **** 				if ((size_t)(*pout - *pin) == diff) {
 1167              		.loc 3 322 0 discriminator 2
 1168 0134 D423     		movs	r3, #212
 1169 0136 FB18     		adds	r3, r7, r3
 1170 0138 1B68     		ldr	r3, [r3]
 1171 013a 0133     		adds	r3, r3, #1
 1172 013c D422     		movs	r2, #212
 1173 013e BA18     		adds	r2, r7, r2
 1174 0140 1360     		str	r3, [r2]
 1175 0142 D023     		movs	r3, #208
 1176 0144 FB18     		adds	r3, r7, r3
 1177 0146 1B68     		ldr	r3, [r3]
 1178 0148 0433     		adds	r3, r3, #4
 1179 014a D022     		movs	r2, #208
 1180 014c BA18     		adds	r2, r7, r2
 1181 014e 1360     		str	r3, [r2]
 1182 0150 CC23     		movs	r3, #204
 1183 0152 FB18     		adds	r3, r7, r3
 1184 0154 1B68     		ldr	r3, [r3]
 1185 0156 0433     		adds	r3, r3, #4
 1186 0158 CC22     		movs	r2, #204
 1187 015a BA18     		adds	r2, r7, r2
 1188 015c 1360     		str	r3, [r2]
 1189              	.L75:
 322:..\..\ugfx_2.7\ugfx_2.7\src\gos/gos_x_threads.c **** 				if ((size_t)(*pout - *pin) == diff) {
 1190              		.loc 3 322 0 is_stmt 0 discriminator 1
 1191 015e D423     		movs	r3, #212
 1192 0160 FB18     		adds	r3, r7, r3
 1193 0162 1B68     		ldr	r3, [r3]
 1194 0164 162B     		cmp	r3, #22
 1195 0166 91D9     		bls	.L81
 335:..\..\ugfx_2.7\ugfx_2.7\src\gos/gos_x_threads.c **** 					}
ARM GAS  C:\Users\megan\AppData\Local\Temp\ccVElWjj.s 			page 33


 336:..\..\ugfx_2.7\ugfx_2.7\src\gos/gos_x_threads.c **** 				}
 337:..\..\ugfx_2.7\ugfx_2.7\src\gos/gos_x_threads.c **** 			}
 338:..\..\ugfx_2.7\ugfx_2.7\src\gos/gos_x_threads.c **** 			stackbase = stackdirup ? (pframeinfo[0].localptr - framebase) : (framebase - pframeinfo[0].local
 1196              		.loc 3 338 0 is_stmt 1
 1197 0168 104B     		ldr	r3, .L84+12
 1198 016a 1B78     		ldrb	r3, [r3]
 1199 016c 002B     		cmp	r3, #0
 1200 016e 09D0     		beq	.L82
 1201              		.loc 3 338 0 is_stmt 0 discriminator 1
 1202 0170 0D4B     		ldr	r3, .L84+8
 1203 0172 1B68     		ldr	r3, [r3]
 1204 0174 1B68     		ldr	r3, [r3]
 1205 0176 1A00     		movs	r2, r3
 1206 0178 C823     		movs	r3, #200
 1207 017a FB18     		adds	r3, r7, r3
 1208 017c 1B68     		ldr	r3, [r3]
 1209 017e D31A     		subs	r3, r2, r3
 1210 0180 1A00     		movs	r2, r3
 1211 0182 07E0     		b	.L83
 1212              	.L82:
 1213              		.loc 3 338 0 discriminator 2
 1214 0184 C823     		movs	r3, #200
 1215 0186 FB18     		adds	r3, r7, r3
 1216 0188 1A68     		ldr	r2, [r3]
 1217 018a 074B     		ldr	r3, .L84+8
 1218 018c 1B68     		ldr	r3, [r3]
 1219 018e 1B68     		ldr	r3, [r3]
 1220 0190 D31A     		subs	r3, r2, r3
 1221 0192 1A00     		movs	r2, r3
 1222              	.L83:
 1223              		.loc 3 338 0 discriminator 4
 1224 0194 084B     		ldr	r3, .L84+24
 1225 0196 1A60     		str	r2, [r3]
 339:..\..\ugfx_2.7\ugfx_2.7\src\gos/gos_x_threads.c **** 		}
 1226              		.loc 3 339 0 is_stmt 1 discriminator 4
 1227 0198 C046     		nop
 1228 019a BD46     		mov	sp, r7
 1229 019c 36B0     		add	sp, sp, #216
 1230              		@ sp needed
 1231 019e 80BD     		pop	{r7, pc}
 1232              	.L85:
 1233              		.align	2
 1234              	.L84:
 1235 01a0 14000000 		.word	mainthread
 1236 01a4 2C000000 		.word	maincxt
 1237 01a8 98000000 		.word	pframeinfo
 1238 01ac 88000000 		.word	stackdirup
 1239 01b0 90000000 		.word	jmpmask2
 1240 01b4 8C000000 		.word	jmpmask1
 1241 01b8 94000000 		.word	stackbase
 1242              		.cfi_endproc
 1243              	.LFE20:
 1244              		.size	_gfxThreadsInit, .-_gfxThreadsInit
 1245              		.section	.text._gfxAdjustCxt,"ax",%progbits
 1246              		.align	2
 1247              		.code	16
 1248              		.thumb_func
ARM GAS  C:\Users\megan\AppData\Local\Temp\ccVElWjj.s 			page 34


 1249              		.type	_gfxAdjustCxt, %function
 1250              	_gfxAdjustCxt:
 1251              	.LFB21:
 340:..\..\ugfx_2.7\ugfx_2.7\src\gos/gos_x_threads.c **** 
 341:..\..\ugfx_2.7\ugfx_2.7\src\gos/gos_x_threads.c **** 	#endif
 342:..\..\ugfx_2.7\ugfx_2.7\src\gos/gos_x_threads.c **** 
 343:..\..\ugfx_2.7\ugfx_2.7\src\gos/gos_x_threads.c **** 	// Move the stack frame and relocate the context data
 344:..\..\ugfx_2.7\ugfx_2.7\src\gos/gos_x_threads.c **** 	static void _gfxAdjustCxt(thread *t) {
 1252              		.loc 3 344 0
 1253              		.cfi_startproc
 1254              		@ args = 0, pretend = 0, frame = 24
 1255              		@ frame_needed = 1, uses_anonymous_args = 0
 1256 0000 80B5     		push	{r7, lr}
 1257              		.cfi_def_cfa_offset 8
 1258              		.cfi_offset 7, -8
 1259              		.cfi_offset 14, -4
 1260 0002 86B0     		sub	sp, sp, #24
 1261              		.cfi_def_cfa_offset 32
 1262 0004 00AF     		add	r7, sp, #0
 1263              		.cfi_def_cfa_register 7
 1264 0006 7860     		str	r0, [r7, #4]
 345:..\..\ugfx_2.7\ugfx_2.7\src\gos/gos_x_threads.c **** 		char **	s;
 346:..\..\ugfx_2.7\ugfx_2.7\src\gos/gos_x_threads.c **** 		char *	nf;
 347:..\..\ugfx_2.7\ugfx_2.7\src\gos/gos_x_threads.c **** 		int		diff;
 348:..\..\ugfx_2.7\ugfx_2.7\src\gos/gos_x_threads.c **** 		uint32_t	i;
 349:..\..\ugfx_2.7\ugfx_2.7\src\gos/gos_x_threads.c **** 
 350:..\..\ugfx_2.7\ugfx_2.7\src\gos/gos_x_threads.c **** 		// Copy the stack frame
 351:..\..\ugfx_2.7\ugfx_2.7\src\gos/gos_x_threads.c **** 		s = 0;
 1265              		.loc 3 351 0
 1266 0008 0023     		movs	r3, #0
 1267 000a BB60     		str	r3, [r7, #8]
 352:..\..\ugfx_2.7\ugfx_2.7\src\gos/gos_x_threads.c **** 		#if AUTO_DETECT_STACKFRAME
 353:..\..\ugfx_2.7\ugfx_2.7\src\gos/gos_x_threads.c **** 			if (STACK_DIR_UP) {					// Stack grows up
 1268              		.loc 3 353 0
 1269 000c 344B     		ldr	r3, .L95
 1270 000e 1B78     		ldrb	r3, [r3]
 1271 0010 002B     		cmp	r3, #0
 1272 0012 15D0     		beq	.L87
 354:..\..\ugfx_2.7\ugfx_2.7\src\gos/gos_x_threads.c **** 				nf = (char *)(t) + sizeof(thread) + sizeof(jmp_buf) + STACK_BASE;
 1273              		.loc 3 354 0
 1274 0014 334B     		ldr	r3, .L95+4
 1275 0016 1B68     		ldr	r3, [r3]
 1276 0018 7433     		adds	r3, r3, #116
 1277 001a 7A68     		ldr	r2, [r7, #4]
 1278 001c D318     		adds	r3, r2, r3
 1279 001e 7B61     		str	r3, [r7, #20]
 355:..\..\ugfx_2.7\ugfx_2.7\src\gos/gos_x_threads.c **** 				memcpy(t+1, (char *)&s - STACK_BASE, STACK_BASE+sizeof(char *));
 1280              		.loc 3 355 0
 1281 0020 7B68     		ldr	r3, [r7, #4]
 1282 0022 1833     		adds	r3, r3, #24
 1283 0024 1800     		movs	r0, r3
 1284 0026 2F4B     		ldr	r3, .L95+4
 1285 0028 1B68     		ldr	r3, [r3]
 1286 002a 5B42     		rsbs	r3, r3, #0
 1287 002c 0822     		movs	r2, #8
 1288 002e BA18     		adds	r2, r7, r2
 1289 0030 D118     		adds	r1, r2, r3
ARM GAS  C:\Users\megan\AppData\Local\Temp\ccVElWjj.s 			page 35


 1290 0032 2C4B     		ldr	r3, .L95+4
 1291 0034 1B68     		ldr	r3, [r3]
 1292 0036 0433     		adds	r3, r3, #4
 1293 0038 1A00     		movs	r2, r3
 1294 003a FFF7FEFF 		bl	memcpy
 1295 003e 11E0     		b	.L88
 1296              	.L87:
 356:..\..\ugfx_2.7\ugfx_2.7\src\gos/gos_x_threads.c **** 			} else {							// Stack grows down
 357:..\..\ugfx_2.7\ugfx_2.7\src\gos/gos_x_threads.c **** 				nf = (char *)(t) + t->size - (STACK_BASE + sizeof(char *));
 1297              		.loc 3 357 0
 1298 0040 7B68     		ldr	r3, [r7, #4]
 1299 0042 9A68     		ldr	r2, [r3, #8]
 1300 0044 274B     		ldr	r3, .L95+4
 1301 0046 1B68     		ldr	r3, [r3]
 1302 0048 D31A     		subs	r3, r2, r3
 1303 004a 043B     		subs	r3, r3, #4
 1304 004c 7A68     		ldr	r2, [r7, #4]
 1305 004e D318     		adds	r3, r2, r3
 1306 0050 7B61     		str	r3, [r7, #20]
 358:..\..\ugfx_2.7\ugfx_2.7\src\gos/gos_x_threads.c **** 				memcpy(nf, &s, STACK_BASE+sizeof(char *));
 1307              		.loc 3 358 0
 1308 0052 244B     		ldr	r3, .L95+4
 1309 0054 1B68     		ldr	r3, [r3]
 1310 0056 1A1D     		adds	r2, r3, #4
 1311 0058 0823     		movs	r3, #8
 1312 005a F918     		adds	r1, r7, r3
 1313 005c 7B69     		ldr	r3, [r7, #20]
 1314 005e 1800     		movs	r0, r3
 1315 0060 FFF7FEFF 		bl	memcpy
 1316              	.L88:
 359:..\..\ugfx_2.7\ugfx_2.7\src\gos/gos_x_threads.c **** 			}
 360:..\..\ugfx_2.7\ugfx_2.7\src\gos/gos_x_threads.c **** 		#elif STACK_DIR_UP
 361:..\..\ugfx_2.7\ugfx_2.7\src\gos/gos_x_threads.c **** 			// Stack grows up
 362:..\..\ugfx_2.7\ugfx_2.7\src\gos/gos_x_threads.c **** 			nf = (char *)(t) + sizeof(thread) + sizeof(jmp_buf) + STACK_BASE;
 363:..\..\ugfx_2.7\ugfx_2.7\src\gos/gos_x_threads.c **** 			memcpy(t+1, (char *)&s - STACK_BASE, STACK_BASE+sizeof(char *));
 364:..\..\ugfx_2.7\ugfx_2.7\src\gos/gos_x_threads.c **** 		#else
 365:..\..\ugfx_2.7\ugfx_2.7\src\gos/gos_x_threads.c **** 			// Stack grows down
 366:..\..\ugfx_2.7\ugfx_2.7\src\gos/gos_x_threads.c **** 			nf = (char *)(t) + t->size - (STACK_BASE + sizeof(char *));
 367:..\..\ugfx_2.7\ugfx_2.7\src\gos/gos_x_threads.c **** 			memcpy(nf, &s, STACK_BASE+sizeof(char *));
 368:..\..\ugfx_2.7\ugfx_2.7\src\gos/gos_x_threads.c **** 		#endif
 369:..\..\ugfx_2.7\ugfx_2.7\src\gos/gos_x_threads.c **** 
 370:..\..\ugfx_2.7\ugfx_2.7\src\gos/gos_x_threads.c **** 		// Relocate the context data
 371:..\..\ugfx_2.7\ugfx_2.7\src\gos/gos_x_threads.c **** 		s = (char **)(t->cxt);
 1317              		.loc 3 371 0
 1318 0064 7B68     		ldr	r3, [r7, #4]
 1319 0066 5B69     		ldr	r3, [r3, #20]
 1320 0068 BB60     		str	r3, [r7, #8]
 372:..\..\ugfx_2.7\ugfx_2.7\src\gos/gos_x_threads.c **** 		diff = nf - (char *)&s;
 1321              		.loc 3 372 0
 1322 006a 7A69     		ldr	r2, [r7, #20]
 1323 006c 0823     		movs	r3, #8
 1324 006e FB18     		adds	r3, r7, r3
 1325 0070 D31A     		subs	r3, r2, r3
 1326 0072 FB60     		str	r3, [r7, #12]
 373:..\..\ugfx_2.7\ugfx_2.7\src\gos/gos_x_threads.c **** 
 374:..\..\ugfx_2.7\ugfx_2.7\src\gos/gos_x_threads.c **** 		// Relocate the elements we know need to be relocated
 375:..\..\ugfx_2.7\ugfx_2.7\src\gos/gos_x_threads.c **** 		for (i = MASK1; i ; i >>= 1, s++) {
ARM GAS  C:\Users\megan\AppData\Local\Temp\ccVElWjj.s 			page 36


 1327              		.loc 3 375 0
 1328 0074 1C4B     		ldr	r3, .L95+8
 1329 0076 1B68     		ldr	r3, [r3]
 1330 0078 3B61     		str	r3, [r7, #16]
 1331 007a 0FE0     		b	.L89
 1332              	.L91:
 376:..\..\ugfx_2.7\ugfx_2.7\src\gos/gos_x_threads.c **** 			if ((i & 1))
 1333              		.loc 3 376 0
 1334 007c 3B69     		ldr	r3, [r7, #16]
 1335 007e 0122     		movs	r2, #1
 1336 0080 1340     		ands	r3, r2
 1337 0082 05D0     		beq	.L90
 377:..\..\ugfx_2.7\ugfx_2.7\src\gos/gos_x_threads.c **** 				*s += diff;
 1338              		.loc 3 377 0
 1339 0084 BB68     		ldr	r3, [r7, #8]
 1340 0086 BA68     		ldr	r2, [r7, #8]
 1341 0088 1168     		ldr	r1, [r2]
 1342 008a FA68     		ldr	r2, [r7, #12]
 1343 008c 8A18     		adds	r2, r1, r2
 1344 008e 1A60     		str	r2, [r3]
 1345              	.L90:
 375:..\..\ugfx_2.7\ugfx_2.7\src\gos/gos_x_threads.c **** 			if ((i & 1))
 1346              		.loc 3 375 0 discriminator 2
 1347 0090 3B69     		ldr	r3, [r7, #16]
 1348 0092 5B08     		lsrs	r3, r3, #1
 1349 0094 3B61     		str	r3, [r7, #16]
 1350 0096 BB68     		ldr	r3, [r7, #8]
 1351 0098 0433     		adds	r3, r3, #4
 1352 009a BB60     		str	r3, [r7, #8]
 1353              	.L89:
 375:..\..\ugfx_2.7\ugfx_2.7\src\gos/gos_x_threads.c **** 			if ((i & 1))
 1354              		.loc 3 375 0 is_stmt 0 discriminator 1
 1355 009c 3B69     		ldr	r3, [r7, #16]
 1356 009e 002B     		cmp	r3, #0
 1357 00a0 ECD1     		bne	.L91
 378:..\..\ugfx_2.7\ugfx_2.7\src\gos/gos_x_threads.c **** 		}
 379:..\..\ugfx_2.7\ugfx_2.7\src\gos/gos_x_threads.c **** 		#ifdef MASK2
 380:..\..\ugfx_2.7\ugfx_2.7\src\gos/gos_x_threads.c **** 			s = (char **)(t->cxt)+32;
 1358              		.loc 3 380 0 is_stmt 1
 1359 00a2 7B68     		ldr	r3, [r7, #4]
 1360 00a4 5B69     		ldr	r3, [r3, #20]
 1361 00a6 8033     		adds	r3, r3, #128
 1362 00a8 BB60     		str	r3, [r7, #8]
 381:..\..\ugfx_2.7\ugfx_2.7\src\gos/gos_x_threads.c **** 			for (i = MASK2; i ; i >>= 1, s++) {
 1363              		.loc 3 381 0
 1364 00aa 104B     		ldr	r3, .L95+12
 1365 00ac 1B68     		ldr	r3, [r3]
 1366 00ae 3B61     		str	r3, [r7, #16]
 1367 00b0 0FE0     		b	.L92
 1368              	.L94:
 382:..\..\ugfx_2.7\ugfx_2.7\src\gos/gos_x_threads.c **** 				if ((i & 1))
 1369              		.loc 3 382 0
 1370 00b2 3B69     		ldr	r3, [r7, #16]
 1371 00b4 0122     		movs	r2, #1
 1372 00b6 1340     		ands	r3, r2
 1373 00b8 05D0     		beq	.L93
 383:..\..\ugfx_2.7\ugfx_2.7\src\gos/gos_x_threads.c **** 					*s += diff;
ARM GAS  C:\Users\megan\AppData\Local\Temp\ccVElWjj.s 			page 37


 1374              		.loc 3 383 0
 1375 00ba BB68     		ldr	r3, [r7, #8]
 1376 00bc BA68     		ldr	r2, [r7, #8]
 1377 00be 1168     		ldr	r1, [r2]
 1378 00c0 FA68     		ldr	r2, [r7, #12]
 1379 00c2 8A18     		adds	r2, r1, r2
 1380 00c4 1A60     		str	r2, [r3]
 1381              	.L93:
 381:..\..\ugfx_2.7\ugfx_2.7\src\gos/gos_x_threads.c **** 			for (i = MASK2; i ; i >>= 1, s++) {
 1382              		.loc 3 381 0 discriminator 2
 1383 00c6 3B69     		ldr	r3, [r7, #16]
 1384 00c8 5B08     		lsrs	r3, r3, #1
 1385 00ca 3B61     		str	r3, [r7, #16]
 1386 00cc BB68     		ldr	r3, [r7, #8]
 1387 00ce 0433     		adds	r3, r3, #4
 1388 00d0 BB60     		str	r3, [r7, #8]
 1389              	.L92:
 381:..\..\ugfx_2.7\ugfx_2.7\src\gos/gos_x_threads.c **** 			for (i = MASK2; i ; i >>= 1, s++) {
 1390              		.loc 3 381 0 is_stmt 0 discriminator 1
 1391 00d2 3B69     		ldr	r3, [r7, #16]
 1392 00d4 002B     		cmp	r3, #0
 1393 00d6 ECD1     		bne	.L94
 384:..\..\ugfx_2.7\ugfx_2.7\src\gos/gos_x_threads.c **** 			}
 385:..\..\ugfx_2.7\ugfx_2.7\src\gos/gos_x_threads.c **** 		#endif
 386:..\..\ugfx_2.7\ugfx_2.7\src\gos/gos_x_threads.c **** 	}
 1394              		.loc 3 386 0 is_stmt 1
 1395 00d8 C046     		nop
 1396 00da BD46     		mov	sp, r7
 1397 00dc 06B0     		add	sp, sp, #24
 1398              		@ sp needed
 1399 00de 80BD     		pop	{r7, pc}
 1400              	.L96:
 1401              		.align	2
 1402              	.L95:
 1403 00e0 88000000 		.word	stackdirup
 1404 00e4 94000000 		.word	stackbase
 1405 00e8 8C000000 		.word	jmpmask1
 1406 00ec 90000000 		.word	jmpmask2
 1407              		.cfi_endproc
 1408              	.LFE21:
 1409              		.size	_gfxAdjustCxt, .-_gfxAdjustCxt
 1410              		.section	.text._gfxXSwitch,"ax",%progbits
 1411              		.align	2
 1412              		.code	16
 1413              		.thumb_func
 1414              		.type	_gfxXSwitch, %function
 1415              	_gfxXSwitch:
 1416              	.LFB22:
 387:..\..\ugfx_2.7\ugfx_2.7\src\gos/gos_x_threads.c **** 	static void _gfxXSwitch(thread *oldt, thread *newt, bool_t doBuildFrame) {
 1417              		.loc 3 387 0
 1418              		.cfi_startproc
 1419              		@ args = 0, pretend = 0, frame = 16
 1420              		@ frame_needed = 1, uses_anonymous_args = 0
 1421 0000 80B5     		push	{r7, lr}
 1422              		.cfi_def_cfa_offset 8
 1423              		.cfi_offset 7, -8
 1424              		.cfi_offset 14, -4
ARM GAS  C:\Users\megan\AppData\Local\Temp\ccVElWjj.s 			page 38


 1425 0002 84B0     		sub	sp, sp, #16
 1426              		.cfi_def_cfa_offset 24
 1427 0004 00AF     		add	r7, sp, #0
 1428              		.cfi_def_cfa_register 7
 1429 0006 F860     		str	r0, [r7, #12]
 1430 0008 B960     		str	r1, [r7, #8]
 1431 000a FB1D     		adds	r3, r7, #7
 1432 000c 1A70     		strb	r2, [r3]
 388:..\..\ugfx_2.7\ugfx_2.7\src\gos/gos_x_threads.c **** 
 389:..\..\ugfx_2.7\ugfx_2.7\src\gos/gos_x_threads.c **** 		// Save the old context
 390:..\..\ugfx_2.7\ugfx_2.7\src\gos/gos_x_threads.c **** 		if (CXT_SAVE(oldt->cxt)) return;
 1433              		.loc 3 390 0
 1434 000e FB68     		ldr	r3, [r7, #12]
 1435 0010 5B69     		ldr	r3, [r3, #20]
 1436 0012 1800     		movs	r0, r3
 1437 0014 FFF7FEFF 		bl	setjmp
 1438 0018 031E     		subs	r3, r0, #0
 1439 001a 25D1     		bne	.L103
 391:..\..\ugfx_2.7\ugfx_2.7\src\gos/gos_x_threads.c **** 
 392:..\..\ugfx_2.7\ugfx_2.7\src\gos/gos_x_threads.c **** 		// Do we need to build a new context?
 393:..\..\ugfx_2.7\ugfx_2.7\src\gos/gos_x_threads.c **** 		if (doBuildFrame) {
 1440              		.loc 3 393 0
 1441 001c FB1D     		adds	r3, r7, #7
 1442 001e 1B78     		ldrb	r3, [r3]
 1443 0020 002B     		cmp	r3, #0
 1444 0022 1BD0     		beq	.L101
 394:..\..\ugfx_2.7\ugfx_2.7\src\gos/gos_x_threads.c **** 
 395:..\..\ugfx_2.7\ugfx_2.7\src\gos/gos_x_threads.c **** 			// Save our existing context as a starting point for the new context
 396:..\..\ugfx_2.7\ugfx_2.7\src\gos/gos_x_threads.c **** 			newt->cxt = newt+1;
 1445              		.loc 3 396 0
 1446 0024 BB68     		ldr	r3, [r7, #8]
 1447 0026 1833     		adds	r3, r3, #24
 1448 0028 1A00     		movs	r2, r3
 1449 002a BB68     		ldr	r3, [r7, #8]
 1450 002c 5A61     		str	r2, [r3, #20]
 397:..\..\ugfx_2.7\ugfx_2.7\src\gos/gos_x_threads.c **** 			if (CXT_SAVE(newt->cxt)) {
 1451              		.loc 3 397 0
 1452 002e BB68     		ldr	r3, [r7, #8]
 1453 0030 5B69     		ldr	r3, [r3, #20]
 1454 0032 1800     		movs	r0, r3
 1455 0034 FFF7FEFF 		bl	setjmp
 1456 0038 031E     		subs	r3, r0, #0
 1457 003a 0BD0     		beq	.L102
 398:..\..\ugfx_2.7\ugfx_2.7\src\gos/gos_x_threads.c **** 
 399:..\..\ugfx_2.7\ugfx_2.7\src\gos/gos_x_threads.c **** 				// We are now running the new thread
 400:..\..\ugfx_2.7\ugfx_2.7\src\gos/gos_x_threads.c **** 
 401:..\..\ugfx_2.7\ugfx_2.7\src\gos/gos_x_threads.c **** 				// We can't use any of the above function parameters here
 402:..\..\ugfx_2.7\ugfx_2.7\src\gos/gos_x_threads.c **** 				//	as we are on a different stack.
 403:..\..\ugfx_2.7\ugfx_2.7\src\gos/gos_x_threads.c **** 
 404:..\..\ugfx_2.7\ugfx_2.7\src\gos/gos_x_threads.c **** 				// Run the users function.
 405:..\..\ugfx_2.7\ugfx_2.7\src\gos/gos_x_threads.c **** 				gfxThreadExit(_gfxCurrentThread->fn(_gfxCurrentThread->param));
 1458              		.loc 3 405 0
 1459 003c 0C4B     		ldr	r3, .L104
 1460 003e 1B68     		ldr	r3, [r3]
 1461 0040 DA68     		ldr	r2, [r3, #12]
 1462 0042 0B4B     		ldr	r3, .L104
 1463 0044 1B68     		ldr	r3, [r3]
ARM GAS  C:\Users\megan\AppData\Local\Temp\ccVElWjj.s 			page 39


 1464 0046 1B69     		ldr	r3, [r3, #16]
 1465 0048 1800     		movs	r0, r3
 1466 004a 9047     		blx	r2
 1467 004c 0300     		movs	r3, r0
 1468 004e 1800     		movs	r0, r3
 1469 0050 FFF7FEFF 		bl	gfxThreadExit
 1470              	.L102:
 406:..\..\ugfx_2.7\ugfx_2.7\src\gos/gos_x_threads.c **** 
 407:..\..\ugfx_2.7\ugfx_2.7\src\gos/gos_x_threads.c **** 				// We never get here as gfxThreadExit() never returns
 408:..\..\ugfx_2.7\ugfx_2.7\src\gos/gos_x_threads.c **** 			}
 409:..\..\ugfx_2.7\ugfx_2.7\src\gos/gos_x_threads.c **** 
 410:..\..\ugfx_2.7\ugfx_2.7\src\gos/gos_x_threads.c **** 			// Adjust the new context so the stack references are correct
 411:..\..\ugfx_2.7\ugfx_2.7\src\gos/gos_x_threads.c **** 			_gfxAdjustCxt(newt);
 1471              		.loc 3 411 0
 1472 0054 BB68     		ldr	r3, [r7, #8]
 1473 0056 1800     		movs	r0, r3
 1474 0058 FFF7FEFF 		bl	_gfxAdjustCxt
 1475              	.L101:
 412:..\..\ugfx_2.7\ugfx_2.7\src\gos/gos_x_threads.c **** 		}
 413:..\..\ugfx_2.7\ugfx_2.7\src\gos/gos_x_threads.c **** 
 414:..\..\ugfx_2.7\ugfx_2.7\src\gos/gos_x_threads.c **** 		// Start the new context
 415:..\..\ugfx_2.7\ugfx_2.7\src\gos/gos_x_threads.c **** 		CXT_RESTORE(newt->cxt, 1);
 1476              		.loc 3 415 0
 1477 005c BB68     		ldr	r3, [r7, #8]
 1478 005e 5B69     		ldr	r3, [r3, #20]
 1479 0060 0121     		movs	r1, #1
 1480 0062 1800     		movs	r0, r3
 1481 0064 FFF7FEFF 		bl	longjmp
 1482              	.L103:
 390:..\..\ugfx_2.7\ugfx_2.7\src\gos/gos_x_threads.c **** 
 1483              		.loc 3 390 0
 1484 0068 C046     		nop
 416:..\..\ugfx_2.7\ugfx_2.7\src\gos/gos_x_threads.c **** 	}
 1485              		.loc 3 416 0
 1486 006a BD46     		mov	sp, r7
 1487 006c 04B0     		add	sp, sp, #16
 1488              		@ sp needed
 1489 006e 80BD     		pop	{r7, pc}
 1490              	.L105:
 1491              		.align	2
 1492              	.L104:
 1493 0070 00000000 		.word	_gfxCurrentThread
 1494              		.cfi_endproc
 1495              	.LFE22:
 1496              		.size	_gfxXSwitch, .-_gfxXSwitch
 1497              		.section	.text.Qinit,"ax",%progbits
 1498              		.align	2
 1499              		.code	16
 1500              		.thumb_func
 1501              		.type	Qinit, %function
 1502              	Qinit:
 1503              	.LFB23:
 417:..\..\ugfx_2.7\ugfx_2.7\src\gos/gos_x_threads.c **** 
 418:..\..\ugfx_2.7\ugfx_2.7\src\gos/gos_x_threads.c **** 	#define _gfxTaskSwitch(oldt, newt)		_gfxXSwitch(oldt, newt, FALSE)
 419:..\..\ugfx_2.7\ugfx_2.7\src\gos/gos_x_threads.c **** 	#define _gfxStartThread(oldt, newt)		_gfxXSwitch(oldt, newt, TRUE)
 420:..\..\ugfx_2.7\ugfx_2.7\src\gos/gos_x_threads.c **** #endif
 421:..\..\ugfx_2.7\ugfx_2.7\src\gos/gos_x_threads.c **** #undef GFX_THREADS_DONE
ARM GAS  C:\Users\megan\AppData\Local\Temp\ccVElWjj.s 			page 40


 422:..\..\ugfx_2.7\ugfx_2.7\src\gos/gos_x_threads.c **** 
 423:..\..\ugfx_2.7\ugfx_2.7\src\gos/gos_x_threads.c **** static void Qinit(threadQ * q) {
 1504              		.loc 3 423 0
 1505              		.cfi_startproc
 1506              		@ args = 0, pretend = 0, frame = 8
 1507              		@ frame_needed = 1, uses_anonymous_args = 0
 1508 0000 80B5     		push	{r7, lr}
 1509              		.cfi_def_cfa_offset 8
 1510              		.cfi_offset 7, -8
 1511              		.cfi_offset 14, -4
 1512 0002 82B0     		sub	sp, sp, #8
 1513              		.cfi_def_cfa_offset 16
 1514 0004 00AF     		add	r7, sp, #0
 1515              		.cfi_def_cfa_register 7
 1516 0006 7860     		str	r0, [r7, #4]
 424:..\..\ugfx_2.7\ugfx_2.7\src\gos/gos_x_threads.c **** 	q->head = q->tail = 0;
 1517              		.loc 3 424 0
 1518 0008 7B68     		ldr	r3, [r7, #4]
 1519 000a 0022     		movs	r2, #0
 1520 000c 5A60     		str	r2, [r3, #4]
 1521 000e 7B68     		ldr	r3, [r7, #4]
 1522 0010 5A68     		ldr	r2, [r3, #4]
 1523 0012 7B68     		ldr	r3, [r7, #4]
 1524 0014 1A60     		str	r2, [r3]
 425:..\..\ugfx_2.7\ugfx_2.7\src\gos/gos_x_threads.c **** }
 1525              		.loc 3 425 0
 1526 0016 C046     		nop
 1527 0018 BD46     		mov	sp, r7
 1528 001a 02B0     		add	sp, sp, #8
 1529              		@ sp needed
 1530 001c 80BD     		pop	{r7, pc}
 1531              		.cfi_endproc
 1532              	.LFE23:
 1533              		.size	Qinit, .-Qinit
 1534 001e C046     		.section	.text.Qadd,"ax",%progbits
 1535              		.align	2
 1536              		.code	16
 1537              		.thumb_func
 1538              		.type	Qadd, %function
 1539              	Qadd:
 1540              	.LFB24:
 426:..\..\ugfx_2.7\ugfx_2.7\src\gos/gos_x_threads.c **** 
 427:..\..\ugfx_2.7\ugfx_2.7\src\gos/gos_x_threads.c **** static void Qadd(threadQ * q, thread *t) {
 1541              		.loc 3 427 0
 1542              		.cfi_startproc
 1543              		@ args = 0, pretend = 0, frame = 8
 1544              		@ frame_needed = 1, uses_anonymous_args = 0
 1545 0000 80B5     		push	{r7, lr}
 1546              		.cfi_def_cfa_offset 8
 1547              		.cfi_offset 7, -8
 1548              		.cfi_offset 14, -4
 1549 0002 82B0     		sub	sp, sp, #8
 1550              		.cfi_def_cfa_offset 16
 1551 0004 00AF     		add	r7, sp, #0
 1552              		.cfi_def_cfa_register 7
 1553 0006 7860     		str	r0, [r7, #4]
 1554 0008 3960     		str	r1, [r7]
ARM GAS  C:\Users\megan\AppData\Local\Temp\ccVElWjj.s 			page 41


 428:..\..\ugfx_2.7\ugfx_2.7\src\gos/gos_x_threads.c **** 	t->next = 0;
 1555              		.loc 3 428 0
 1556 000a 3B68     		ldr	r3, [r7]
 1557 000c 0022     		movs	r2, #0
 1558 000e 1A60     		str	r2, [r3]
 429:..\..\ugfx_2.7\ugfx_2.7\src\gos/gos_x_threads.c **** 	if (q->head) {
 1559              		.loc 3 429 0
 1560 0010 7B68     		ldr	r3, [r7, #4]
 1561 0012 1B68     		ldr	r3, [r3]
 1562 0014 002B     		cmp	r3, #0
 1563 0016 07D0     		beq	.L108
 430:..\..\ugfx_2.7\ugfx_2.7\src\gos/gos_x_threads.c **** 		q->tail->next = t;
 1564              		.loc 3 430 0
 1565 0018 7B68     		ldr	r3, [r7, #4]
 1566 001a 5B68     		ldr	r3, [r3, #4]
 1567 001c 3A68     		ldr	r2, [r7]
 1568 001e 1A60     		str	r2, [r3]
 431:..\..\ugfx_2.7\ugfx_2.7\src\gos/gos_x_threads.c **** 		q->tail = t;
 1569              		.loc 3 431 0
 1570 0020 7B68     		ldr	r3, [r7, #4]
 1571 0022 3A68     		ldr	r2, [r7]
 1572 0024 5A60     		str	r2, [r3, #4]
 432:..\..\ugfx_2.7\ugfx_2.7\src\gos/gos_x_threads.c **** 	} else
 433:..\..\ugfx_2.7\ugfx_2.7\src\gos/gos_x_threads.c **** 		q->head = q->tail = t;
 434:..\..\ugfx_2.7\ugfx_2.7\src\gos/gos_x_threads.c **** }
 1573              		.loc 3 434 0
 1574 0026 06E0     		b	.L110
 1575              	.L108:
 433:..\..\ugfx_2.7\ugfx_2.7\src\gos/gos_x_threads.c **** }
 1576              		.loc 3 433 0
 1577 0028 7B68     		ldr	r3, [r7, #4]
 1578 002a 3A68     		ldr	r2, [r7]
 1579 002c 5A60     		str	r2, [r3, #4]
 1580 002e 7B68     		ldr	r3, [r7, #4]
 1581 0030 5A68     		ldr	r2, [r3, #4]
 1582 0032 7B68     		ldr	r3, [r7, #4]
 1583 0034 1A60     		str	r2, [r3]
 1584              	.L110:
 1585              		.loc 3 434 0
 1586 0036 C046     		nop
 1587 0038 BD46     		mov	sp, r7
 1588 003a 02B0     		add	sp, sp, #8
 1589              		@ sp needed
 1590 003c 80BD     		pop	{r7, pc}
 1591              		.cfi_endproc
 1592              	.LFE24:
 1593              		.size	Qadd, .-Qadd
 1594 003e C046     		.section	.text.Qpop,"ax",%progbits
 1595              		.align	2
 1596              		.code	16
 1597              		.thumb_func
 1598              		.type	Qpop, %function
 1599              	Qpop:
 1600              	.LFB25:
 435:..\..\ugfx_2.7\ugfx_2.7\src\gos/gos_x_threads.c **** 
 436:..\..\ugfx_2.7\ugfx_2.7\src\gos/gos_x_threads.c **** static thread *Qpop(threadQ * q) {
 1601              		.loc 3 436 0
ARM GAS  C:\Users\megan\AppData\Local\Temp\ccVElWjj.s 			page 42


 1602              		.cfi_startproc
 1603              		@ args = 0, pretend = 0, frame = 16
 1604              		@ frame_needed = 1, uses_anonymous_args = 0
 1605 0000 80B5     		push	{r7, lr}
 1606              		.cfi_def_cfa_offset 8
 1607              		.cfi_offset 7, -8
 1608              		.cfi_offset 14, -4
 1609 0002 84B0     		sub	sp, sp, #16
 1610              		.cfi_def_cfa_offset 24
 1611 0004 00AF     		add	r7, sp, #0
 1612              		.cfi_def_cfa_register 7
 1613 0006 7860     		str	r0, [r7, #4]
 437:..\..\ugfx_2.7\ugfx_2.7\src\gos/gos_x_threads.c **** 	struct thread * t;
 438:..\..\ugfx_2.7\ugfx_2.7\src\gos/gos_x_threads.c **** 
 439:..\..\ugfx_2.7\ugfx_2.7\src\gos/gos_x_threads.c **** 	if (!q->head)
 1614              		.loc 3 439 0
 1615 0008 7B68     		ldr	r3, [r7, #4]
 1616 000a 1B68     		ldr	r3, [r3]
 1617 000c 002B     		cmp	r3, #0
 1618 000e 01D1     		bne	.L112
 440:..\..\ugfx_2.7\ugfx_2.7\src\gos/gos_x_threads.c **** 		return 0;
 1619              		.loc 3 440 0
 1620 0010 0023     		movs	r3, #0
 1621 0012 07E0     		b	.L113
 1622              	.L112:
 441:..\..\ugfx_2.7\ugfx_2.7\src\gos/gos_x_threads.c **** 	t = q->head;
 1623              		.loc 3 441 0
 1624 0014 7B68     		ldr	r3, [r7, #4]
 1625 0016 1B68     		ldr	r3, [r3]
 1626 0018 FB60     		str	r3, [r7, #12]
 442:..\..\ugfx_2.7\ugfx_2.7\src\gos/gos_x_threads.c **** 	q->head = t->next;
 1627              		.loc 3 442 0
 1628 001a FB68     		ldr	r3, [r7, #12]
 1629 001c 1A68     		ldr	r2, [r3]
 1630 001e 7B68     		ldr	r3, [r7, #4]
 1631 0020 1A60     		str	r2, [r3]
 443:..\..\ugfx_2.7\ugfx_2.7\src\gos/gos_x_threads.c **** 	return t;
 1632              		.loc 3 443 0
 1633 0022 FB68     		ldr	r3, [r7, #12]
 1634              	.L113:
 444:..\..\ugfx_2.7\ugfx_2.7\src\gos/gos_x_threads.c **** }
 1635              		.loc 3 444 0
 1636 0024 1800     		movs	r0, r3
 1637 0026 BD46     		mov	sp, r7
 1638 0028 04B0     		add	sp, sp, #16
 1639              		@ sp needed
 1640 002a 80BD     		pop	{r7, pc}
 1641              		.cfi_endproc
 1642              	.LFE25:
 1643              		.size	Qpop, .-Qpop
 1644              		.section	.text._gosThreadsInit,"ax",%progbits
 1645              		.align	2
 1646              		.global	_gosThreadsInit
 1647              		.code	16
 1648              		.thumb_func
 1649              		.type	_gosThreadsInit, %function
 1650              	_gosThreadsInit:
ARM GAS  C:\Users\megan\AppData\Local\Temp\ccVElWjj.s 			page 43


 1651              	.LFB26:
 445:..\..\ugfx_2.7\ugfx_2.7\src\gos/gos_x_threads.c **** 
 446:..\..\ugfx_2.7\ugfx_2.7\src\gos/gos_x_threads.c **** void _gosThreadsInit(void) {
 1652              		.loc 3 446 0
 1653              		.cfi_startproc
 1654              		@ args = 0, pretend = 0, frame = 0
 1655              		@ frame_needed = 1, uses_anonymous_args = 0
 1656 0000 80B5     		push	{r7, lr}
 1657              		.cfi_def_cfa_offset 8
 1658              		.cfi_offset 7, -8
 1659              		.cfi_offset 14, -4
 1660 0002 00AF     		add	r7, sp, #0
 1661              		.cfi_def_cfa_register 7
 447:..\..\ugfx_2.7\ugfx_2.7\src\gos/gos_x_threads.c **** 	Qinit(&readyQ);
 1662              		.loc 3 447 0
 1663 0004 0D4B     		ldr	r3, .L115
 1664 0006 1800     		movs	r0, r3
 1665 0008 FFF7FEFF 		bl	Qinit
 448:..\..\ugfx_2.7\ugfx_2.7\src\gos/gos_x_threads.c **** 
 449:..\..\ugfx_2.7\ugfx_2.7\src\gos/gos_x_threads.c **** 	mainthread.next = 0;
 1666              		.loc 3 449 0
 1667 000c 0C4B     		ldr	r3, .L115+4
 1668 000e 0022     		movs	r2, #0
 1669 0010 1A60     		str	r2, [r3]
 450:..\..\ugfx_2.7\ugfx_2.7\src\gos/gos_x_threads.c **** 	mainthread.size = sizeof(thread);
 1670              		.loc 3 450 0
 1671 0012 0B4B     		ldr	r3, .L115+4
 1672 0014 1822     		movs	r2, #24
 1673 0016 9A60     		str	r2, [r3, #8]
 451:..\..\ugfx_2.7\ugfx_2.7\src\gos/gos_x_threads.c **** 	mainthread.flags = FLG_THD_MAIN;
 1674              		.loc 3 451 0
 1675 0018 094B     		ldr	r3, .L115+4
 1676 001a 0222     		movs	r2, #2
 1677 001c 5A60     		str	r2, [r3, #4]
 452:..\..\ugfx_2.7\ugfx_2.7\src\gos/gos_x_threads.c **** 	mainthread.fn = 0;
 1678              		.loc 3 452 0
 1679 001e 084B     		ldr	r3, .L115+4
 1680 0020 0022     		movs	r2, #0
 1681 0022 DA60     		str	r2, [r3, #12]
 453:..\..\ugfx_2.7\ugfx_2.7\src\gos/gos_x_threads.c **** 	mainthread.param = 0;
 1682              		.loc 3 453 0
 1683 0024 064B     		ldr	r3, .L115+4
 1684 0026 0022     		movs	r2, #0
 1685 0028 1A61     		str	r2, [r3, #16]
 454:..\..\ugfx_2.7\ugfx_2.7\src\gos/gos_x_threads.c **** 
 455:..\..\ugfx_2.7\ugfx_2.7\src\gos/gos_x_threads.c **** 	_gfxThreadsInit();
 1686              		.loc 3 455 0
 1687 002a FFF7FEFF 		bl	_gfxThreadsInit
 456:..\..\ugfx_2.7\ugfx_2.7\src\gos/gos_x_threads.c **** 
 457:..\..\ugfx_2.7\ugfx_2.7\src\gos/gos_x_threads.c **** 	_gfxCurrentThread = &mainthread;
 1688              		.loc 3 457 0
 1689 002e 054B     		ldr	r3, .L115+8
 1690 0030 034A     		ldr	r2, .L115+4
 1691 0032 1A60     		str	r2, [r3]
 458:..\..\ugfx_2.7\ugfx_2.7\src\gos/gos_x_threads.c **** }
 1692              		.loc 3 458 0
 1693 0034 C046     		nop
ARM GAS  C:\Users\megan\AppData\Local\Temp\ccVElWjj.s 			page 44


 1694 0036 BD46     		mov	sp, r7
 1695              		@ sp needed
 1696 0038 80BD     		pop	{r7, pc}
 1697              	.L116:
 1698 003a C046     		.align	2
 1699              	.L115:
 1700 003c 04000000 		.word	readyQ
 1701 0040 14000000 		.word	mainthread
 1702 0044 00000000 		.word	_gfxCurrentThread
 1703              		.cfi_endproc
 1704              	.LFE26:
 1705              		.size	_gosThreadsInit, .-_gosThreadsInit
 1706              		.section	.text.gfxThreadMe,"ax",%progbits
 1707              		.align	2
 1708              		.global	gfxThreadMe
 1709              		.code	16
 1710              		.thumb_func
 1711              		.type	gfxThreadMe, %function
 1712              	gfxThreadMe:
 1713              	.LFB27:
 459:..\..\ugfx_2.7\ugfx_2.7\src\gos/gos_x_threads.c **** 
 460:..\..\ugfx_2.7\ugfx_2.7\src\gos/gos_x_threads.c **** gfxThreadHandle gfxThreadMe(void) {
 1714              		.loc 3 460 0
 1715              		.cfi_startproc
 1716              		@ args = 0, pretend = 0, frame = 0
 1717              		@ frame_needed = 1, uses_anonymous_args = 0
 1718 0000 80B5     		push	{r7, lr}
 1719              		.cfi_def_cfa_offset 8
 1720              		.cfi_offset 7, -8
 1721              		.cfi_offset 14, -4
 1722 0002 00AF     		add	r7, sp, #0
 1723              		.cfi_def_cfa_register 7
 461:..\..\ugfx_2.7\ugfx_2.7\src\gos/gos_x_threads.c **** 	return (gfxThreadHandle)_gfxCurrentThread;
 1724              		.loc 3 461 0
 1725 0004 024B     		ldr	r3, .L119
 1726 0006 1B68     		ldr	r3, [r3]
 462:..\..\ugfx_2.7\ugfx_2.7\src\gos/gos_x_threads.c **** }
 1727              		.loc 3 462 0
 1728 0008 1800     		movs	r0, r3
 1729 000a BD46     		mov	sp, r7
 1730              		@ sp needed
 1731 000c 80BD     		pop	{r7, pc}
 1732              	.L120:
 1733 000e C046     		.align	2
 1734              	.L119:
 1735 0010 00000000 		.word	_gfxCurrentThread
 1736              		.cfi_endproc
 1737              	.LFE27:
 1738              		.size	gfxThreadMe, .-gfxThreadMe
 1739              		.section	.text.cleanUpDeadThreads,"ax",%progbits
 1740              		.align	2
 1741              		.code	16
 1742              		.thumb_func
 1743              		.type	cleanUpDeadThreads, %function
 1744              	cleanUpDeadThreads:
 1745              	.LFB28:
 463:..\..\ugfx_2.7\ugfx_2.7\src\gos/gos_x_threads.c **** 
ARM GAS  C:\Users\megan\AppData\Local\Temp\ccVElWjj.s 			page 45


 464:..\..\ugfx_2.7\ugfx_2.7\src\gos/gos_x_threads.c **** // Check if there are dead processes to deallocate
 465:..\..\ugfx_2.7\ugfx_2.7\src\gos/gos_x_threads.c **** static void cleanUpDeadThreads(void) {
 1746              		.loc 3 465 0
 1747              		.cfi_startproc
 1748              		@ args = 0, pretend = 0, frame = 8
 1749              		@ frame_needed = 1, uses_anonymous_args = 0
 1750 0000 80B5     		push	{r7, lr}
 1751              		.cfi_def_cfa_offset 8
 1752              		.cfi_offset 7, -8
 1753              		.cfi_offset 14, -4
 1754 0002 82B0     		sub	sp, sp, #8
 1755              		.cfi_def_cfa_offset 16
 1756 0004 00AF     		add	r7, sp, #0
 1757              		.cfi_def_cfa_register 7
 466:..\..\ugfx_2.7\ugfx_2.7\src\gos/gos_x_threads.c **** 	thread *p;
 467:..\..\ugfx_2.7\ugfx_2.7\src\gos/gos_x_threads.c **** 
 468:..\..\ugfx_2.7\ugfx_2.7\src\gos/gos_x_threads.c **** 	while ((p = Qpop(&deadQ)))
 1758              		.loc 3 468 0
 1759 0006 03E0     		b	.L122
 1760              	.L123:
 469:..\..\ugfx_2.7\ugfx_2.7\src\gos/gos_x_threads.c **** 		gfxFree(p);
 1761              		.loc 3 469 0
 1762 0008 7B68     		ldr	r3, [r7, #4]
 1763 000a 1800     		movs	r0, r3
 1764 000c FFF7FEFF 		bl	gfxFree
 1765              	.L122:
 468:..\..\ugfx_2.7\ugfx_2.7\src\gos/gos_x_threads.c **** 		gfxFree(p);
 1766              		.loc 3 468 0
 1767 0010 064B     		ldr	r3, .L124
 1768 0012 1800     		movs	r0, r3
 1769 0014 FFF7FEFF 		bl	Qpop
 1770 0018 0300     		movs	r3, r0
 1771 001a 7B60     		str	r3, [r7, #4]
 1772 001c 7B68     		ldr	r3, [r7, #4]
 1773 001e 002B     		cmp	r3, #0
 1774 0020 F2D1     		bne	.L123
 470:..\..\ugfx_2.7\ugfx_2.7\src\gos/gos_x_threads.c **** }
 1775              		.loc 3 470 0
 1776 0022 C046     		nop
 1777 0024 BD46     		mov	sp, r7
 1778 0026 02B0     		add	sp, sp, #8
 1779              		@ sp needed
 1780 0028 80BD     		pop	{r7, pc}
 1781              	.L125:
 1782 002a C046     		.align	2
 1783              	.L124:
 1784 002c 0C000000 		.word	deadQ
 1785              		.cfi_endproc
 1786              	.LFE28:
 1787              		.size	cleanUpDeadThreads, .-cleanUpDeadThreads
 1788              		.section	.text.gfxYield,"ax",%progbits
 1789              		.align	2
 1790              		.global	gfxYield
 1791              		.code	16
 1792              		.thumb_func
 1793              		.type	gfxYield, %function
 1794              	gfxYield:
ARM GAS  C:\Users\megan\AppData\Local\Temp\ccVElWjj.s 			page 46


 1795              	.LFB29:
 471:..\..\ugfx_2.7\ugfx_2.7\src\gos/gos_x_threads.c **** 
 472:..\..\ugfx_2.7\ugfx_2.7\src\gos/gos_x_threads.c **** void gfxYield(void) {
 1796              		.loc 3 472 0
 1797              		.cfi_startproc
 1798              		@ args = 0, pretend = 0, frame = 8
 1799              		@ frame_needed = 1, uses_anonymous_args = 0
 1800 0000 80B5     		push	{r7, lr}
 1801              		.cfi_def_cfa_offset 8
 1802              		.cfi_offset 7, -8
 1803              		.cfi_offset 14, -4
 1804 0002 82B0     		sub	sp, sp, #8
 1805              		.cfi_def_cfa_offset 16
 1806 0004 00AF     		add	r7, sp, #0
 1807              		.cfi_def_cfa_register 7
 473:..\..\ugfx_2.7\ugfx_2.7\src\gos/gos_x_threads.c **** 	thread	*me;
 474:..\..\ugfx_2.7\ugfx_2.7\src\gos/gos_x_threads.c **** 
 475:..\..\ugfx_2.7\ugfx_2.7\src\gos/gos_x_threads.c **** 	// Clean up zombies
 476:..\..\ugfx_2.7\ugfx_2.7\src\gos/gos_x_threads.c **** 	cleanUpDeadThreads();
 1808              		.loc 3 476 0
 1809 0006 FFF7FEFF 		bl	cleanUpDeadThreads
 477:..\..\ugfx_2.7\ugfx_2.7\src\gos/gos_x_threads.c **** 
 478:..\..\ugfx_2.7\ugfx_2.7\src\gos/gos_x_threads.c **** 	// Is there another thread to run?
 479:..\..\ugfx_2.7\ugfx_2.7\src\gos/gos_x_threads.c **** 	if (!readyQ.head)
 1810              		.loc 3 479 0
 1811 000a 104B     		ldr	r3, .L130
 1812 000c 1B68     		ldr	r3, [r3]
 1813 000e 002B     		cmp	r3, #0
 1814 0010 17D0     		beq	.L129
 480:..\..\ugfx_2.7\ugfx_2.7\src\gos/gos_x_threads.c **** 		return;
 481:..\..\ugfx_2.7\ugfx_2.7\src\gos/gos_x_threads.c **** 
 482:..\..\ugfx_2.7\ugfx_2.7\src\gos/gos_x_threads.c **** 	Qadd(&readyQ, me = _gfxCurrentThread);
 1815              		.loc 3 482 0
 1816 0012 0F4B     		ldr	r3, .L130+4
 1817 0014 1B68     		ldr	r3, [r3]
 1818 0016 7B60     		str	r3, [r7, #4]
 1819 0018 7A68     		ldr	r2, [r7, #4]
 1820 001a 0C4B     		ldr	r3, .L130
 1821 001c 1100     		movs	r1, r2
 1822 001e 1800     		movs	r0, r3
 1823 0020 FFF7FEFF 		bl	Qadd
 483:..\..\ugfx_2.7\ugfx_2.7\src\gos/gos_x_threads.c **** 	_gfxCurrentThread = Qpop(&readyQ);
 1824              		.loc 3 483 0
 1825 0024 094B     		ldr	r3, .L130
 1826 0026 1800     		movs	r0, r3
 1827 0028 FFF7FEFF 		bl	Qpop
 1828 002c 0200     		movs	r2, r0
 1829 002e 084B     		ldr	r3, .L130+4
 1830 0030 1A60     		str	r2, [r3]
 484:..\..\ugfx_2.7\ugfx_2.7\src\gos/gos_x_threads.c **** 	_gfxTaskSwitch(me, _gfxCurrentThread);
 1831              		.loc 3 484 0
 1832 0032 074B     		ldr	r3, .L130+4
 1833 0034 1968     		ldr	r1, [r3]
 1834 0036 7B68     		ldr	r3, [r7, #4]
 1835 0038 0022     		movs	r2, #0
 1836 003a 1800     		movs	r0, r3
 1837 003c FFF7FEFF 		bl	_gfxXSwitch
ARM GAS  C:\Users\megan\AppData\Local\Temp\ccVElWjj.s 			page 47


 1838 0040 00E0     		b	.L126
 1839              	.L129:
 480:..\..\ugfx_2.7\ugfx_2.7\src\gos/gos_x_threads.c **** 		return;
 1840              		.loc 3 480 0
 1841 0042 C046     		nop
 1842              	.L126:
 485:..\..\ugfx_2.7\ugfx_2.7\src\gos/gos_x_threads.c **** }
 1843              		.loc 3 485 0
 1844 0044 BD46     		mov	sp, r7
 1845 0046 02B0     		add	sp, sp, #8
 1846              		@ sp needed
 1847 0048 80BD     		pop	{r7, pc}
 1848              	.L131:
 1849 004a C046     		.align	2
 1850              	.L130:
 1851 004c 04000000 		.word	readyQ
 1852 0050 00000000 		.word	_gfxCurrentThread
 1853              		.cfi_endproc
 1854              	.LFE29:
 1855              		.size	gfxYield, .-gfxYield
 1856              		.section	.text.gfxThreadExit,"ax",%progbits
 1857              		.align	2
 1858              		.global	gfxThreadExit
 1859              		.code	16
 1860              		.thumb_func
 1861              		.type	gfxThreadExit, %function
 1862              	gfxThreadExit:
 1863              	.LFB30:
 486:..\..\ugfx_2.7\ugfx_2.7\src\gos/gos_x_threads.c **** 
 487:..\..\ugfx_2.7\ugfx_2.7\src\gos/gos_x_threads.c **** // This routine is not currently public - but it could be.
 488:..\..\ugfx_2.7\ugfx_2.7\src\gos/gos_x_threads.c **** void gfxThreadExit(threadreturn_t ret) {
 1864              		.loc 3 488 0
 1865              		.cfi_startproc
 1866              		@ args = 0, pretend = 0, frame = 16
 1867              		@ frame_needed = 1, uses_anonymous_args = 0
 1868 0000 80B5     		push	{r7, lr}
 1869              		.cfi_def_cfa_offset 8
 1870              		.cfi_offset 7, -8
 1871              		.cfi_offset 14, -4
 1872 0002 84B0     		sub	sp, sp, #16
 1873              		.cfi_def_cfa_offset 24
 1874 0004 00AF     		add	r7, sp, #0
 1875              		.cfi_def_cfa_register 7
 1876 0006 7860     		str	r0, [r7, #4]
 489:..\..\ugfx_2.7\ugfx_2.7\src\gos/gos_x_threads.c **** 	thread	*me;
 490:..\..\ugfx_2.7\ugfx_2.7\src\gos/gos_x_threads.c **** 
 491:..\..\ugfx_2.7\ugfx_2.7\src\gos/gos_x_threads.c **** 	// Save the results in case someone is waiting
 492:..\..\ugfx_2.7\ugfx_2.7\src\gos/gos_x_threads.c **** 	me = _gfxCurrentThread;
 1877              		.loc 3 492 0
 1878 0008 174B     		ldr	r3, .L135
 1879 000a 1B68     		ldr	r3, [r3]
 1880 000c FB60     		str	r3, [r7, #12]
 493:..\..\ugfx_2.7\ugfx_2.7\src\gos/gos_x_threads.c **** 	me->param = (void *)ret;
 1881              		.loc 3 493 0
 1882 000e 7A68     		ldr	r2, [r7, #4]
 1883 0010 FB68     		ldr	r3, [r7, #12]
 1884 0012 1A61     		str	r2, [r3, #16]
ARM GAS  C:\Users\megan\AppData\Local\Temp\ccVElWjj.s 			page 48


 494:..\..\ugfx_2.7\ugfx_2.7\src\gos/gos_x_threads.c **** 	me->flags |= FLG_THD_DEAD;
 1885              		.loc 3 494 0
 1886 0014 FB68     		ldr	r3, [r7, #12]
 1887 0016 5B68     		ldr	r3, [r3, #4]
 1888 0018 0422     		movs	r2, #4
 1889 001a 1A43     		orrs	r2, r3
 1890 001c FB68     		ldr	r3, [r7, #12]
 1891 001e 5A60     		str	r2, [r3, #4]
 495:..\..\ugfx_2.7\ugfx_2.7\src\gos/gos_x_threads.c **** 
 496:..\..\ugfx_2.7\ugfx_2.7\src\gos/gos_x_threads.c **** 	// Add us to the dead list if we need deallocation as we can't free ourselves.
 497:..\..\ugfx_2.7\ugfx_2.7\src\gos/gos_x_threads.c **** 	// If someone is waiting on the thread they will do the cleanup.
 498:..\..\ugfx_2.7\ugfx_2.7\src\gos/gos_x_threads.c **** 	if ((me->flags & (FLG_THD_ALLOC|FLG_THD_WAIT)) == FLG_THD_ALLOC)
 1892              		.loc 3 498 0
 1893 0020 FB68     		ldr	r3, [r7, #12]
 1894 0022 5B68     		ldr	r3, [r3, #4]
 1895 0024 0922     		movs	r2, #9
 1896 0026 1340     		ands	r3, r2
 1897 0028 012B     		cmp	r3, #1
 1898 002a 05D1     		bne	.L133
 499:..\..\ugfx_2.7\ugfx_2.7\src\gos/gos_x_threads.c **** 		Qadd(&deadQ, me);
 1899              		.loc 3 499 0
 1900 002c FA68     		ldr	r2, [r7, #12]
 1901 002e 0F4B     		ldr	r3, .L135+4
 1902 0030 1100     		movs	r1, r2
 1903 0032 1800     		movs	r0, r3
 1904 0034 FFF7FEFF 		bl	Qadd
 1905              	.L133:
 500:..\..\ugfx_2.7\ugfx_2.7\src\gos/gos_x_threads.c **** 
 501:..\..\ugfx_2.7\ugfx_2.7\src\gos/gos_x_threads.c **** 	// Set the next thread. Exit if it was the last thread
 502:..\..\ugfx_2.7\ugfx_2.7\src\gos/gos_x_threads.c **** 	if (!(_gfxCurrentThread = Qpop(&readyQ)))
 1906              		.loc 3 502 0
 1907 0038 0D4B     		ldr	r3, .L135+8
 1908 003a 1800     		movs	r0, r3
 1909 003c FFF7FEFF 		bl	Qpop
 1910 0040 0200     		movs	r2, r0
 1911 0042 094B     		ldr	r3, .L135
 1912 0044 1A60     		str	r2, [r3]
 1913 0046 084B     		ldr	r3, .L135
 1914 0048 1B68     		ldr	r3, [r3]
 1915 004a 002B     		cmp	r3, #0
 1916 004c 01D1     		bne	.L134
 503:..\..\ugfx_2.7\ugfx_2.7\src\gos/gos_x_threads.c **** 		gfxExit();
 1917              		.loc 3 503 0
 1918 004e FFF7FEFF 		bl	gfxExit
 1919              	.L134:
 504:..\..\ugfx_2.7\ugfx_2.7\src\gos/gos_x_threads.c **** 
 505:..\..\ugfx_2.7\ugfx_2.7\src\gos/gos_x_threads.c **** 	// Switch to the new thread
 506:..\..\ugfx_2.7\ugfx_2.7\src\gos/gos_x_threads.c **** 	_gfxTaskSwitch(me, _gfxCurrentThread);
 1920              		.loc 3 506 0
 1921 0052 054B     		ldr	r3, .L135
 1922 0054 1968     		ldr	r1, [r3]
 1923 0056 FB68     		ldr	r3, [r7, #12]
 1924 0058 0022     		movs	r2, #0
 1925 005a 1800     		movs	r0, r3
 1926 005c FFF7FEFF 		bl	_gfxXSwitch
 507:..\..\ugfx_2.7\ugfx_2.7\src\gos/gos_x_threads.c **** 
 508:..\..\ugfx_2.7\ugfx_2.7\src\gos/gos_x_threads.c **** 	// We never get back here as we didn't re-queue ourselves
ARM GAS  C:\Users\megan\AppData\Local\Temp\ccVElWjj.s 			page 49


 509:..\..\ugfx_2.7\ugfx_2.7\src\gos/gos_x_threads.c **** }
 1927              		.loc 3 509 0
 1928 0060 C046     		nop
 1929 0062 BD46     		mov	sp, r7
 1930 0064 04B0     		add	sp, sp, #16
 1931              		@ sp needed
 1932 0066 80BD     		pop	{r7, pc}
 1933              	.L136:
 1934              		.align	2
 1935              	.L135:
 1936 0068 00000000 		.word	_gfxCurrentThread
 1937 006c 0C000000 		.word	deadQ
 1938 0070 04000000 		.word	readyQ
 1939              		.cfi_endproc
 1940              	.LFE30:
 1941              		.size	gfxThreadExit, .-gfxThreadExit
 1942              		.section	.text.gfxThreadCreate,"ax",%progbits
 1943              		.align	2
 1944              		.global	gfxThreadCreate
 1945              		.code	16
 1946              		.thumb_func
 1947              		.type	gfxThreadCreate, %function
 1948              	gfxThreadCreate:
 1949              	.LFB31:
 510:..\..\ugfx_2.7\ugfx_2.7\src\gos/gos_x_threads.c **** 
 511:..\..\ugfx_2.7\ugfx_2.7\src\gos/gos_x_threads.c **** gfxThreadHandle gfxThreadCreate(void *stackarea, size_t stacksz, threadpriority_t prio, DECLARE_THR
 1950              		.loc 3 511 0
 1951              		.cfi_startproc
 1952              		@ args = 4, pretend = 0, frame = 24
 1953              		@ frame_needed = 1, uses_anonymous_args = 0
 1954 0000 80B5     		push	{r7, lr}
 1955              		.cfi_def_cfa_offset 8
 1956              		.cfi_offset 7, -8
 1957              		.cfi_offset 14, -4
 1958 0002 86B0     		sub	sp, sp, #24
 1959              		.cfi_def_cfa_offset 32
 1960 0004 00AF     		add	r7, sp, #0
 1961              		.cfi_def_cfa_register 7
 1962 0006 F860     		str	r0, [r7, #12]
 1963 0008 B960     		str	r1, [r7, #8]
 1964 000a 7A60     		str	r2, [r7, #4]
 1965 000c 3B60     		str	r3, [r7]
 512:..\..\ugfx_2.7\ugfx_2.7\src\gos/gos_x_threads.c **** 	thread *	t;
 513:..\..\ugfx_2.7\ugfx_2.7\src\gos/gos_x_threads.c **** 	thread *	me;
 514:..\..\ugfx_2.7\ugfx_2.7\src\gos/gos_x_threads.c **** 	(void)		prio;
 515:..\..\ugfx_2.7\ugfx_2.7\src\gos/gos_x_threads.c **** 
 516:..\..\ugfx_2.7\ugfx_2.7\src\gos/gos_x_threads.c **** 	// Ensure we have a minimum stack size
 517:..\..\ugfx_2.7\ugfx_2.7\src\gos/gos_x_threads.c **** 	if (stacksz < sizeof(thread)+64) {
 1966              		.loc 3 517 0
 1967 000e BB68     		ldr	r3, [r7, #8]
 1968 0010 572B     		cmp	r3, #87
 1969 0012 03D8     		bhi	.L138
 518:..\..\ugfx_2.7\ugfx_2.7\src\gos/gos_x_threads.c **** 		stacksz = sizeof(thread)+64;
 1970              		.loc 3 518 0
 1971 0014 5823     		movs	r3, #88
 1972 0016 BB60     		str	r3, [r7, #8]
 519:..\..\ugfx_2.7\ugfx_2.7\src\gos/gos_x_threads.c **** 		stackarea = 0;
ARM GAS  C:\Users\megan\AppData\Local\Temp\ccVElWjj.s 			page 50


 1973              		.loc 3 519 0
 1974 0018 0023     		movs	r3, #0
 1975 001a FB60     		str	r3, [r7, #12]
 1976              	.L138:
 520:..\..\ugfx_2.7\ugfx_2.7\src\gos/gos_x_threads.c **** 	}
 521:..\..\ugfx_2.7\ugfx_2.7\src\gos/gos_x_threads.c **** 
 522:..\..\ugfx_2.7\ugfx_2.7\src\gos/gos_x_threads.c **** 	if (stackarea) {
 1977              		.loc 3 522 0
 1978 001c FB68     		ldr	r3, [r7, #12]
 1979 001e 002B     		cmp	r3, #0
 1980 0020 05D0     		beq	.L139
 523:..\..\ugfx_2.7\ugfx_2.7\src\gos/gos_x_threads.c **** 		t = (thread *)stackarea;
 1981              		.loc 3 523 0
 1982 0022 FB68     		ldr	r3, [r7, #12]
 1983 0024 7B61     		str	r3, [r7, #20]
 524:..\..\ugfx_2.7\ugfx_2.7\src\gos/gos_x_threads.c **** 		t->flags = 0;
 1984              		.loc 3 524 0
 1985 0026 7B69     		ldr	r3, [r7, #20]
 1986 0028 0022     		movs	r2, #0
 1987 002a 5A60     		str	r2, [r3, #4]
 1988 002c 0DE0     		b	.L140
 1989              	.L139:
 525:..\..\ugfx_2.7\ugfx_2.7\src\gos/gos_x_threads.c **** 	} else {
 526:..\..\ugfx_2.7\ugfx_2.7\src\gos/gos_x_threads.c **** 		t = (thread *)gfxAlloc(stacksz);
 1990              		.loc 3 526 0
 1991 002e BB68     		ldr	r3, [r7, #8]
 1992 0030 1800     		movs	r0, r3
 1993 0032 FFF7FEFF 		bl	gfxAlloc
 1994 0036 0300     		movs	r3, r0
 1995 0038 7B61     		str	r3, [r7, #20]
 527:..\..\ugfx_2.7\ugfx_2.7\src\gos/gos_x_threads.c **** 		if (!t)
 1996              		.loc 3 527 0
 1997 003a 7B69     		ldr	r3, [r7, #20]
 1998 003c 002B     		cmp	r3, #0
 1999 003e 01D1     		bne	.L141
 528:..\..\ugfx_2.7\ugfx_2.7\src\gos/gos_x_threads.c **** 			return 0;
 2000              		.loc 3 528 0
 2001 0040 0023     		movs	r3, #0
 2002 0042 1EE0     		b	.L142
 2003              	.L141:
 529:..\..\ugfx_2.7\ugfx_2.7\src\gos/gos_x_threads.c **** 		t->flags = FLG_THD_ALLOC;
 2004              		.loc 3 529 0
 2005 0044 7B69     		ldr	r3, [r7, #20]
 2006 0046 0122     		movs	r2, #1
 2007 0048 5A60     		str	r2, [r3, #4]
 2008              	.L140:
 530:..\..\ugfx_2.7\ugfx_2.7\src\gos/gos_x_threads.c **** 	}
 531:..\..\ugfx_2.7\ugfx_2.7\src\gos/gos_x_threads.c **** 	t->size = stacksz;
 2009              		.loc 3 531 0
 2010 004a 7B69     		ldr	r3, [r7, #20]
 2011 004c BA68     		ldr	r2, [r7, #8]
 2012 004e 9A60     		str	r2, [r3, #8]
 532:..\..\ugfx_2.7\ugfx_2.7\src\gos/gos_x_threads.c **** 	t->fn = fn;
 2013              		.loc 3 532 0
 2014 0050 7B69     		ldr	r3, [r7, #20]
 2015 0052 3A68     		ldr	r2, [r7]
 2016 0054 DA60     		str	r2, [r3, #12]
ARM GAS  C:\Users\megan\AppData\Local\Temp\ccVElWjj.s 			page 51


 533:..\..\ugfx_2.7\ugfx_2.7\src\gos/gos_x_threads.c **** 	t->param = param;
 2017              		.loc 3 533 0
 2018 0056 7B69     		ldr	r3, [r7, #20]
 2019 0058 3A6A     		ldr	r2, [r7, #32]
 2020 005a 1A61     		str	r2, [r3, #16]
 534:..\..\ugfx_2.7\ugfx_2.7\src\gos/gos_x_threads.c **** 
 535:..\..\ugfx_2.7\ugfx_2.7\src\gos/gos_x_threads.c **** 	// Add the current thread to the queue because we are starting a new thread.
 536:..\..\ugfx_2.7\ugfx_2.7\src\gos/gos_x_threads.c **** 	me = _gfxCurrentThread;
 2021              		.loc 3 536 0
 2022 005c 0B4B     		ldr	r3, .L143
 2023 005e 1B68     		ldr	r3, [r3]
 2024 0060 3B61     		str	r3, [r7, #16]
 537:..\..\ugfx_2.7\ugfx_2.7\src\gos/gos_x_threads.c **** 	Qadd(&readyQ, me);
 2025              		.loc 3 537 0
 2026 0062 3A69     		ldr	r2, [r7, #16]
 2027 0064 0A4B     		ldr	r3, .L143+4
 2028 0066 1100     		movs	r1, r2
 2029 0068 1800     		movs	r0, r3
 2030 006a FFF7FEFF 		bl	Qadd
 538:..\..\ugfx_2.7\ugfx_2.7\src\gos/gos_x_threads.c **** 	_gfxCurrentThread = t;
 2031              		.loc 3 538 0
 2032 006e 074B     		ldr	r3, .L143
 2033 0070 7A69     		ldr	r2, [r7, #20]
 2034 0072 1A60     		str	r2, [r3]
 539:..\..\ugfx_2.7\ugfx_2.7\src\gos/gos_x_threads.c **** 
 540:..\..\ugfx_2.7\ugfx_2.7\src\gos/gos_x_threads.c **** 	_gfxStartThread(me, t);
 2035              		.loc 3 540 0
 2036 0074 7969     		ldr	r1, [r7, #20]
 2037 0076 3B69     		ldr	r3, [r7, #16]
 2038 0078 FF22     		movs	r2, #255
 2039 007a 1800     		movs	r0, r3
 2040 007c FFF7FEFF 		bl	_gfxXSwitch
 541:..\..\ugfx_2.7\ugfx_2.7\src\gos/gos_x_threads.c **** 
 542:..\..\ugfx_2.7\ugfx_2.7\src\gos/gos_x_threads.c **** 	// Return the new thread handle
 543:..\..\ugfx_2.7\ugfx_2.7\src\gos/gos_x_threads.c **** 	return t;
 2041              		.loc 3 543 0
 2042 0080 7B69     		ldr	r3, [r7, #20]
 2043              	.L142:
 544:..\..\ugfx_2.7\ugfx_2.7\src\gos/gos_x_threads.c **** }
 2044              		.loc 3 544 0
 2045 0082 1800     		movs	r0, r3
 2046 0084 BD46     		mov	sp, r7
 2047 0086 06B0     		add	sp, sp, #24
 2048              		@ sp needed
 2049 0088 80BD     		pop	{r7, pc}
 2050              	.L144:
 2051 008a C046     		.align	2
 2052              	.L143:
 2053 008c 00000000 		.word	_gfxCurrentThread
 2054 0090 04000000 		.word	readyQ
 2055              		.cfi_endproc
 2056              	.LFE31:
 2057              		.size	gfxThreadCreate, .-gfxThreadCreate
 2058              		.section	.text.gfxThreadWait,"ax",%progbits
 2059              		.align	2
 2060              		.global	gfxThreadWait
 2061              		.code	16
ARM GAS  C:\Users\megan\AppData\Local\Temp\ccVElWjj.s 			page 52


 2062              		.thumb_func
 2063              		.type	gfxThreadWait, %function
 2064              	gfxThreadWait:
 2065              	.LFB32:
 545:..\..\ugfx_2.7\ugfx_2.7\src\gos/gos_x_threads.c **** 
 546:..\..\ugfx_2.7\ugfx_2.7\src\gos/gos_x_threads.c **** threadreturn_t gfxThreadWait(gfxThreadHandle th) {
 2066              		.loc 3 546 0
 2067              		.cfi_startproc
 2068              		@ args = 0, pretend = 0, frame = 16
 2069              		@ frame_needed = 1, uses_anonymous_args = 0
 2070 0000 80B5     		push	{r7, lr}
 2071              		.cfi_def_cfa_offset 8
 2072              		.cfi_offset 7, -8
 2073              		.cfi_offset 14, -4
 2074 0002 84B0     		sub	sp, sp, #16
 2075              		.cfi_def_cfa_offset 24
 2076 0004 00AF     		add	r7, sp, #0
 2077              		.cfi_def_cfa_register 7
 2078 0006 7860     		str	r0, [r7, #4]
 547:..\..\ugfx_2.7\ugfx_2.7\src\gos/gos_x_threads.c **** 	thread *		t;
 548:..\..\ugfx_2.7\ugfx_2.7\src\gos/gos_x_threads.c **** 
 549:..\..\ugfx_2.7\ugfx_2.7\src\gos/gos_x_threads.c **** 	t = th;
 2079              		.loc 3 549 0
 2080 0008 7B68     		ldr	r3, [r7, #4]
 2081 000a FB60     		str	r3, [r7, #12]
 550:..\..\ugfx_2.7\ugfx_2.7\src\gos/gos_x_threads.c **** 	if (t == _gfxCurrentThread)
 2082              		.loc 3 550 0
 2083 000c 154B     		ldr	r3, .L151
 2084 000e 1B68     		ldr	r3, [r3]
 2085 0010 FA68     		ldr	r2, [r7, #12]
 2086 0012 9A42     		cmp	r2, r3
 2087 0014 02D1     		bne	.L146
 551:..\..\ugfx_2.7\ugfx_2.7\src\gos/gos_x_threads.c **** 		return -1;
 2088              		.loc 3 551 0
 2089 0016 0123     		movs	r3, #1
 2090 0018 5B42     		rsbs	r3, r3, #0
 2091 001a 1FE0     		b	.L147
 2092              	.L146:
 552:..\..\ugfx_2.7\ugfx_2.7\src\gos/gos_x_threads.c **** 
 553:..\..\ugfx_2.7\ugfx_2.7\src\gos/gos_x_threads.c **** 	// Mark that we are waiting
 554:..\..\ugfx_2.7\ugfx_2.7\src\gos/gos_x_threads.c **** 	t->flags |= FLG_THD_WAIT;
 2093              		.loc 3 554 0
 2094 001c FB68     		ldr	r3, [r7, #12]
 2095 001e 5B68     		ldr	r3, [r3, #4]
 2096 0020 0822     		movs	r2, #8
 2097 0022 1A43     		orrs	r2, r3
 2098 0024 FB68     		ldr	r3, [r7, #12]
 2099 0026 5A60     		str	r2, [r3, #4]
 555:..\..\ugfx_2.7\ugfx_2.7\src\gos/gos_x_threads.c **** 
 556:..\..\ugfx_2.7\ugfx_2.7\src\gos/gos_x_threads.c **** 	// Wait for the thread to die
 557:..\..\ugfx_2.7\ugfx_2.7\src\gos/gos_x_threads.c **** 	while(!(t->flags & FLG_THD_DEAD))
 2100              		.loc 3 557 0
 2101 0028 01E0     		b	.L148
 2102              	.L149:
 558:..\..\ugfx_2.7\ugfx_2.7\src\gos/gos_x_threads.c **** 		gfxYield();
 2103              		.loc 3 558 0
 2104 002a FFF7FEFF 		bl	gfxYield
ARM GAS  C:\Users\megan\AppData\Local\Temp\ccVElWjj.s 			page 53


 2105              	.L148:
 557:..\..\ugfx_2.7\ugfx_2.7\src\gos/gos_x_threads.c **** 		gfxYield();
 2106              		.loc 3 557 0
 2107 002e FB68     		ldr	r3, [r7, #12]
 2108 0030 5B68     		ldr	r3, [r3, #4]
 2109 0032 0422     		movs	r2, #4
 2110 0034 1340     		ands	r3, r2
 2111 0036 F8D0     		beq	.L149
 559:..\..\ugfx_2.7\ugfx_2.7\src\gos/gos_x_threads.c **** 
 560:..\..\ugfx_2.7\ugfx_2.7\src\gos/gos_x_threads.c **** 	// Unmark
 561:..\..\ugfx_2.7\ugfx_2.7\src\gos/gos_x_threads.c **** 	t->flags &= ~FLG_THD_WAIT;
 2112              		.loc 3 561 0
 2113 0038 FB68     		ldr	r3, [r7, #12]
 2114 003a 5B68     		ldr	r3, [r3, #4]
 2115 003c 0822     		movs	r2, #8
 2116 003e 9343     		bics	r3, r2
 2117 0040 1A00     		movs	r2, r3
 2118 0042 FB68     		ldr	r3, [r7, #12]
 2119 0044 5A60     		str	r2, [r3, #4]
 562:..\..\ugfx_2.7\ugfx_2.7\src\gos/gos_x_threads.c **** 
 563:..\..\ugfx_2.7\ugfx_2.7\src\gos/gos_x_threads.c **** 	// Clean up resources if needed
 564:..\..\ugfx_2.7\ugfx_2.7\src\gos/gos_x_threads.c **** 	if (t->flags & FLG_THD_ALLOC)
 2120              		.loc 3 564 0
 2121 0046 FB68     		ldr	r3, [r7, #12]
 2122 0048 5B68     		ldr	r3, [r3, #4]
 2123 004a 0122     		movs	r2, #1
 2124 004c 1340     		ands	r3, r2
 2125 004e 03D0     		beq	.L150
 565:..\..\ugfx_2.7\ugfx_2.7\src\gos/gos_x_threads.c **** 		gfxFree(t);
 2126              		.loc 3 565 0
 2127 0050 FB68     		ldr	r3, [r7, #12]
 2128 0052 1800     		movs	r0, r3
 2129 0054 FFF7FEFF 		bl	gfxFree
 2130              	.L150:
 566:..\..\ugfx_2.7\ugfx_2.7\src\gos/gos_x_threads.c **** 
 567:..\..\ugfx_2.7\ugfx_2.7\src\gos/gos_x_threads.c **** 	// Return the status left by the dead process
 568:..\..\ugfx_2.7\ugfx_2.7\src\gos/gos_x_threads.c **** 	return (threadreturn_t)t->param;
 2131              		.loc 3 568 0
 2132 0058 FB68     		ldr	r3, [r7, #12]
 2133 005a 1B69     		ldr	r3, [r3, #16]
 2134              	.L147:
 569:..\..\ugfx_2.7\ugfx_2.7\src\gos/gos_x_threads.c **** }
 2135              		.loc 3 569 0
 2136 005c 1800     		movs	r0, r3
 2137 005e BD46     		mov	sp, r7
 2138 0060 04B0     		add	sp, sp, #16
 2139              		@ sp needed
 2140 0062 80BD     		pop	{r7, pc}
 2141              	.L152:
 2142              		.align	2
 2143              	.L151:
 2144 0064 00000000 		.word	_gfxCurrentThread
 2145              		.cfi_endproc
 2146              	.LFE32:
 2147              		.size	gfxThreadWait, .-gfxThreadWait
 2148              		.section	.text._gosHeapInit,"ax",%progbits
 2149              		.align	2
ARM GAS  C:\Users\megan\AppData\Local\Temp\ccVElWjj.s 			page 54


 2150              		.global	_gosHeapInit
 2151              		.code	16
 2152              		.thumb_func
 2153              		.type	_gosHeapInit, %function
 2154              	_gosHeapInit:
 2155              	.LFB33:
 2156              		.file 4 "..\\..\\ugfx_2.7\\ugfx_2.7\\src\\gos/gos_x_heap.c"
   1:..\..\ugfx_2.7\ugfx_2.7\src\gos/gos_x_heap.c **** /*
   2:..\..\ugfx_2.7\ugfx_2.7\src\gos/gos_x_heap.c ****  * This file is subject to the terms of the GFX License. If a copy of
   3:..\..\ugfx_2.7\ugfx_2.7\src\gos/gos_x_heap.c ****  * the license was not distributed with this file, you can obtain one at:
   4:..\..\ugfx_2.7\ugfx_2.7\src\gos/gos_x_heap.c ****  *
   5:..\..\ugfx_2.7\ugfx_2.7\src\gos/gos_x_heap.c ****  *              http://ugfx.org/license.html
   6:..\..\ugfx_2.7\ugfx_2.7\src\gos/gos_x_heap.c ****  */
   7:..\..\ugfx_2.7\ugfx_2.7\src\gos/gos_x_heap.c **** 
   8:..\..\ugfx_2.7\ugfx_2.7\src\gos/gos_x_heap.c **** #include "../../gfx.h"
   9:..\..\ugfx_2.7\ugfx_2.7\src\gos/gos_x_heap.c **** 
  10:..\..\ugfx_2.7\ugfx_2.7\src\gos/gos_x_heap.c **** #if GOS_NEED_X_HEAP
  11:..\..\ugfx_2.7\ugfx_2.7\src\gos/gos_x_heap.c **** 
  12:..\..\ugfx_2.7\ugfx_2.7\src\gos/gos_x_heap.c **** #include <string.h>				// Prototype for memcpy()
  13:..\..\ugfx_2.7\ugfx_2.7\src\gos/gos_x_heap.c **** 
  14:..\..\ugfx_2.7\ugfx_2.7\src\gos/gos_x_heap.c **** 
  15:..\..\ugfx_2.7\ugfx_2.7\src\gos/gos_x_heap.c **** #if GFX_OS_HEAP_SIZE == 0
  16:..\..\ugfx_2.7\ugfx_2.7\src\gos/gos_x_heap.c **** 	#include <stdlib.h>				// Prototype for malloc(), realloc() and free()
  17:..\..\ugfx_2.7\ugfx_2.7\src\gos/gos_x_heap.c **** 
  18:..\..\ugfx_2.7\ugfx_2.7\src\gos/gos_x_heap.c **** 	void _gosHeapInit(void) {
 2157              		.loc 4 18 0
 2158              		.cfi_startproc
 2159              		@ args = 0, pretend = 0, frame = 0
 2160              		@ frame_needed = 1, uses_anonymous_args = 0
 2161 0000 80B5     		push	{r7, lr}
 2162              		.cfi_def_cfa_offset 8
 2163              		.cfi_offset 7, -8
 2164              		.cfi_offset 14, -4
 2165 0002 00AF     		add	r7, sp, #0
 2166              		.cfi_def_cfa_register 7
  19:..\..\ugfx_2.7\ugfx_2.7\src\gos/gos_x_heap.c **** 	}
 2167              		.loc 4 19 0
 2168 0004 C046     		nop
 2169 0006 BD46     		mov	sp, r7
 2170              		@ sp needed
 2171 0008 80BD     		pop	{r7, pc}
 2172              		.cfi_endproc
 2173              	.LFE33:
 2174              		.size	_gosHeapInit, .-_gosHeapInit
 2175 000a C046     		.section	.text.gfxAlloc,"ax",%progbits
 2176              		.align	2
 2177              		.global	gfxAlloc
 2178              		.code	16
 2179              		.thumb_func
 2180              		.type	gfxAlloc, %function
 2181              	gfxAlloc:
 2182              	.LFB34:
  20:..\..\ugfx_2.7\ugfx_2.7\src\gos/gos_x_heap.c **** 	void *gfxAlloc(size_t sz) {
 2183              		.loc 4 20 0
 2184              		.cfi_startproc
 2185              		@ args = 0, pretend = 0, frame = 8
 2186              		@ frame_needed = 1, uses_anonymous_args = 0
ARM GAS  C:\Users\megan\AppData\Local\Temp\ccVElWjj.s 			page 55


 2187 0000 80B5     		push	{r7, lr}
 2188              		.cfi_def_cfa_offset 8
 2189              		.cfi_offset 7, -8
 2190              		.cfi_offset 14, -4
 2191 0002 82B0     		sub	sp, sp, #8
 2192              		.cfi_def_cfa_offset 16
 2193 0004 00AF     		add	r7, sp, #0
 2194              		.cfi_def_cfa_register 7
 2195 0006 7860     		str	r0, [r7, #4]
  21:..\..\ugfx_2.7\ugfx_2.7\src\gos/gos_x_heap.c **** 		return malloc(sz);
 2196              		.loc 4 21 0
 2197 0008 7B68     		ldr	r3, [r7, #4]
 2198 000a 1800     		movs	r0, r3
 2199 000c FFF7FEFF 		bl	malloc
 2200 0010 0300     		movs	r3, r0
  22:..\..\ugfx_2.7\ugfx_2.7\src\gos/gos_x_heap.c **** 	}
 2201              		.loc 4 22 0
 2202 0012 1800     		movs	r0, r3
 2203 0014 BD46     		mov	sp, r7
 2204 0016 02B0     		add	sp, sp, #8
 2205              		@ sp needed
 2206 0018 80BD     		pop	{r7, pc}
 2207              		.cfi_endproc
 2208              	.LFE34:
 2209              		.size	gfxAlloc, .-gfxAlloc
 2210 001a C046     		.section	.text.gfxRealloc,"ax",%progbits
 2211              		.align	2
 2212              		.global	gfxRealloc
 2213              		.code	16
 2214              		.thumb_func
 2215              		.type	gfxRealloc, %function
 2216              	gfxRealloc:
 2217              	.LFB35:
  23:..\..\ugfx_2.7\ugfx_2.7\src\gos/gos_x_heap.c **** 
  24:..\..\ugfx_2.7\ugfx_2.7\src\gos/gos_x_heap.c **** 	void *gfxRealloc(void *ptr, size_t oldsz, size_t newsz) {
 2218              		.loc 4 24 0
 2219              		.cfi_startproc
 2220              		@ args = 0, pretend = 0, frame = 16
 2221              		@ frame_needed = 1, uses_anonymous_args = 0
 2222 0000 80B5     		push	{r7, lr}
 2223              		.cfi_def_cfa_offset 8
 2224              		.cfi_offset 7, -8
 2225              		.cfi_offset 14, -4
 2226 0002 84B0     		sub	sp, sp, #16
 2227              		.cfi_def_cfa_offset 24
 2228 0004 00AF     		add	r7, sp, #0
 2229              		.cfi_def_cfa_register 7
 2230 0006 F860     		str	r0, [r7, #12]
 2231 0008 B960     		str	r1, [r7, #8]
 2232 000a 7A60     		str	r2, [r7, #4]
  25:..\..\ugfx_2.7\ugfx_2.7\src\gos/gos_x_heap.c **** 		(void) oldsz;
  26:..\..\ugfx_2.7\ugfx_2.7\src\gos/gos_x_heap.c **** 		return realloc(ptr, newsz);
 2233              		.loc 4 26 0
 2234 000c 7A68     		ldr	r2, [r7, #4]
 2235 000e FB68     		ldr	r3, [r7, #12]
 2236 0010 1100     		movs	r1, r2
 2237 0012 1800     		movs	r0, r3
ARM GAS  C:\Users\megan\AppData\Local\Temp\ccVElWjj.s 			page 56


 2238 0014 FFF7FEFF 		bl	realloc
 2239 0018 0300     		movs	r3, r0
  27:..\..\ugfx_2.7\ugfx_2.7\src\gos/gos_x_heap.c **** 	}
 2240              		.loc 4 27 0
 2241 001a 1800     		movs	r0, r3
 2242 001c BD46     		mov	sp, r7
 2243 001e 04B0     		add	sp, sp, #16
 2244              		@ sp needed
 2245 0020 80BD     		pop	{r7, pc}
 2246              		.cfi_endproc
 2247              	.LFE35:
 2248              		.size	gfxRealloc, .-gfxRealloc
 2249 0022 C046     		.section	.text.gfxFree,"ax",%progbits
 2250              		.align	2
 2251              		.global	gfxFree
 2252              		.code	16
 2253              		.thumb_func
 2254              		.type	gfxFree, %function
 2255              	gfxFree:
 2256              	.LFB36:
  28:..\..\ugfx_2.7\ugfx_2.7\src\gos/gos_x_heap.c **** 
  29:..\..\ugfx_2.7\ugfx_2.7\src\gos/gos_x_heap.c **** 	void gfxFree(void *ptr) {
 2257              		.loc 4 29 0
 2258              		.cfi_startproc
 2259              		@ args = 0, pretend = 0, frame = 8
 2260              		@ frame_needed = 1, uses_anonymous_args = 0
 2261 0000 80B5     		push	{r7, lr}
 2262              		.cfi_def_cfa_offset 8
 2263              		.cfi_offset 7, -8
 2264              		.cfi_offset 14, -4
 2265 0002 82B0     		sub	sp, sp, #8
 2266              		.cfi_def_cfa_offset 16
 2267 0004 00AF     		add	r7, sp, #0
 2268              		.cfi_def_cfa_register 7
 2269 0006 7860     		str	r0, [r7, #4]
  30:..\..\ugfx_2.7\ugfx_2.7\src\gos/gos_x_heap.c **** 		free(ptr);
 2270              		.loc 4 30 0
 2271 0008 7B68     		ldr	r3, [r7, #4]
 2272 000a 1800     		movs	r0, r3
 2273 000c FFF7FEFF 		bl	free
  31:..\..\ugfx_2.7\ugfx_2.7\src\gos/gos_x_heap.c **** 	}
 2274              		.loc 4 31 0
 2275 0010 C046     		nop
 2276 0012 BD46     		mov	sp, r7
 2277 0014 02B0     		add	sp, sp, #8
 2278              		@ sp needed
 2279 0016 80BD     		pop	{r7, pc}
 2280              		.cfi_endproc
 2281              	.LFE36:
 2282              		.size	gfxFree, .-gfxFree
 2283              		.bss
 2284              		.align	2
 2285              	dhead:
 2286 009c 00000000 		.space	4
 2287              		.align	2
 2288              	dtail:
 2289 00a0 00000000 		.space	4
ARM GAS  C:\Users\megan\AppData\Local\Temp\ccVElWjj.s 			page 57


 2290              		.section	.text._gdriverInit,"ax",%progbits
 2291              		.align	2
 2292              		.global	_gdriverInit
 2293              		.code	16
 2294              		.thumb_func
 2295              		.type	_gdriverInit, %function
 2296              	_gdriverInit:
 2297              	.LFB37:
 2298              		.file 5 "..\\..\\ugfx_2.7\\ugfx_2.7\\src\\gdriver/gdriver.c"
   1:..\..\ugfx_2.7\ugfx_2.7\src\gdriver/gdriver.c **** /*
   2:..\..\ugfx_2.7\ugfx_2.7\src\gdriver/gdriver.c ****  * This file is subject to the terms of the GFX License. If a copy of
   3:..\..\ugfx_2.7\ugfx_2.7\src\gdriver/gdriver.c ****  * the license was not distributed with this file, you can obtain one at:
   4:..\..\ugfx_2.7\ugfx_2.7\src\gdriver/gdriver.c ****  *
   5:..\..\ugfx_2.7\ugfx_2.7\src\gdriver/gdriver.c ****  *              http://ugfx.org/license.html
   6:..\..\ugfx_2.7\ugfx_2.7\src\gdriver/gdriver.c ****  */
   7:..\..\ugfx_2.7\ugfx_2.7\src\gdriver/gdriver.c **** 
   8:..\..\ugfx_2.7\ugfx_2.7\src\gdriver/gdriver.c **** #include "../../gfx.h"
   9:..\..\ugfx_2.7\ugfx_2.7\src\gdriver/gdriver.c **** 
  10:..\..\ugfx_2.7\ugfx_2.7\src\gdriver/gdriver.c **** #if GFX_USE_GDRIVER
  11:..\..\ugfx_2.7\ugfx_2.7\src\gdriver/gdriver.c **** 
  12:..\..\ugfx_2.7\ugfx_2.7\src\gdriver/gdriver.c **** #include "gdriver.h"
  13:..\..\ugfx_2.7\ugfx_2.7\src\gdriver/gdriver.c **** 
  14:..\..\ugfx_2.7\ugfx_2.7\src\gdriver/gdriver.c **** #include <string.h>         // For memset
  15:..\..\ugfx_2.7\ugfx_2.7\src\gdriver/gdriver.c **** 
  16:..\..\ugfx_2.7\ugfx_2.7\src\gdriver/gdriver.c **** // Define the tables to hold the driver instances.
  17:..\..\ugfx_2.7\ugfx_2.7\src\gdriver/gdriver.c **** static GDriver *dhead;
  18:..\..\ugfx_2.7\ugfx_2.7\src\gdriver/gdriver.c **** static GDriver *dtail;
  19:..\..\ugfx_2.7\ugfx_2.7\src\gdriver/gdriver.c **** 
  20:..\..\ugfx_2.7\ugfx_2.7\src\gdriver/gdriver.c **** // The system initialization.
  21:..\..\ugfx_2.7\ugfx_2.7\src\gdriver/gdriver.c **** void _gdriverInit(void) {
 2299              		.loc 5 21 0
 2300              		.cfi_startproc
 2301              		@ args = 0, pretend = 0, frame = 0
 2302              		@ frame_needed = 1, uses_anonymous_args = 0
 2303 0000 80B5     		push	{r7, lr}
 2304              		.cfi_def_cfa_offset 8
 2305              		.cfi_offset 7, -8
 2306              		.cfi_offset 14, -4
 2307 0002 00AF     		add	r7, sp, #0
 2308              		.cfi_def_cfa_register 7
  22:..\..\ugfx_2.7\ugfx_2.7\src\gdriver/gdriver.c **** }
 2309              		.loc 5 22 0
 2310 0004 C046     		nop
 2311 0006 BD46     		mov	sp, r7
 2312              		@ sp needed
 2313 0008 80BD     		pop	{r7, pc}
 2314              		.cfi_endproc
 2315              	.LFE37:
 2316              		.size	_gdriverInit, .-_gdriverInit
 2317 000a C046     		.section	.text._gdriverDeinit,"ax",%progbits
 2318              		.align	2
 2319              		.global	_gdriverDeinit
 2320              		.code	16
 2321              		.thumb_func
 2322              		.type	_gdriverDeinit, %function
 2323              	_gdriverDeinit:
 2324              	.LFB38:
ARM GAS  C:\Users\megan\AppData\Local\Temp\ccVElWjj.s 			page 58


  23:..\..\ugfx_2.7\ugfx_2.7\src\gdriver/gdriver.c **** 
  24:..\..\ugfx_2.7\ugfx_2.7\src\gdriver/gdriver.c **** // The system de-initialization.
  25:..\..\ugfx_2.7\ugfx_2.7\src\gdriver/gdriver.c **** void _gdriverDeinit(void) {
 2325              		.loc 5 25 0
 2326              		.cfi_startproc
 2327              		@ args = 0, pretend = 0, frame = 0
 2328              		@ frame_needed = 1, uses_anonymous_args = 0
 2329 0000 80B5     		push	{r7, lr}
 2330              		.cfi_def_cfa_offset 8
 2331              		.cfi_offset 7, -8
 2332              		.cfi_offset 14, -4
 2333 0002 00AF     		add	r7, sp, #0
 2334              		.cfi_def_cfa_register 7
  26:..\..\ugfx_2.7\ugfx_2.7\src\gdriver/gdriver.c **** 	while(dhead)
 2335              		.loc 5 26 0
 2336 0004 04E0     		b	.L161
 2337              	.L162:
  27:..\..\ugfx_2.7\ugfx_2.7\src\gdriver/gdriver.c **** 		gdriverUnRegister(dhead);
 2338              		.loc 5 27 0
 2339 0006 064B     		ldr	r3, .L163
 2340 0008 1B68     		ldr	r3, [r3]
 2341 000a 1800     		movs	r0, r3
 2342 000c FFF7FEFF 		bl	gdriverUnRegister
 2343              	.L161:
  26:..\..\ugfx_2.7\ugfx_2.7\src\gdriver/gdriver.c **** 	while(dhead)
 2344              		.loc 5 26 0
 2345 0010 034B     		ldr	r3, .L163
 2346 0012 1B68     		ldr	r3, [r3]
 2347 0014 002B     		cmp	r3, #0
 2348 0016 F6D1     		bne	.L162
  28:..\..\ugfx_2.7\ugfx_2.7\src\gdriver/gdriver.c **** }
 2349              		.loc 5 28 0
 2350 0018 C046     		nop
 2351 001a BD46     		mov	sp, r7
 2352              		@ sp needed
 2353 001c 80BD     		pop	{r7, pc}
 2354              	.L164:
 2355 001e C046     		.align	2
 2356              	.L163:
 2357 0020 9C000000 		.word	dhead
 2358              		.cfi_endproc
 2359              	.LFE38:
 2360              		.size	_gdriverDeinit, .-_gdriverDeinit
 2361              		.section	.text.gdriverRegister,"ax",%progbits
 2362              		.align	2
 2363              		.global	gdriverRegister
 2364              		.code	16
 2365              		.thumb_func
 2366              		.type	gdriverRegister, %function
 2367              	gdriverRegister:
 2368              	.LFB39:
  29:..\..\ugfx_2.7\ugfx_2.7\src\gdriver/gdriver.c **** 
  30:..\..\ugfx_2.7\ugfx_2.7\src\gdriver/gdriver.c **** 
  31:..\..\ugfx_2.7\ugfx_2.7\src\gdriver/gdriver.c **** GDriver *gdriverRegister(const GDriverVMT *vmt, void *param) {
 2369              		.loc 5 31 0
 2370              		.cfi_startproc
 2371              		@ args = 0, pretend = 0, frame = 24
ARM GAS  C:\Users\megan\AppData\Local\Temp\ccVElWjj.s 			page 59


 2372              		@ frame_needed = 1, uses_anonymous_args = 0
 2373 0000 90B5     		push	{r4, r7, lr}
 2374              		.cfi_def_cfa_offset 12
 2375              		.cfi_offset 4, -12
 2376              		.cfi_offset 7, -8
 2377              		.cfi_offset 14, -4
 2378 0002 87B0     		sub	sp, sp, #28
 2379              		.cfi_def_cfa_offset 40
 2380 0004 00AF     		add	r7, sp, #0
 2381              		.cfi_def_cfa_register 7
 2382 0006 7860     		str	r0, [r7, #4]
 2383 0008 3960     		str	r1, [r7]
  32:..\..\ugfx_2.7\ugfx_2.7\src\gdriver/gdriver.c **** 	GDriver *	pd;
  33:..\..\ugfx_2.7\ugfx_2.7\src\gdriver/gdriver.c **** 	unsigned	dinstance, sinstance;
  34:..\..\ugfx_2.7\ugfx_2.7\src\gdriver/gdriver.c **** 
  35:..\..\ugfx_2.7\ugfx_2.7\src\gdriver/gdriver.c **** 	// Loop to find the driver instance and the system instance numbers
  36:..\..\ugfx_2.7\ugfx_2.7\src\gdriver/gdriver.c **** 	dinstance = sinstance = 0;
 2384              		.loc 5 36 0
 2385 000a 0023     		movs	r3, #0
 2386 000c FB60     		str	r3, [r7, #12]
 2387 000e FB68     		ldr	r3, [r7, #12]
 2388 0010 3B61     		str	r3, [r7, #16]
  37:..\..\ugfx_2.7\ugfx_2.7\src\gdriver/gdriver.c **** 	for(pd = dhead; pd; pd = pd->driverchain) {
 2389              		.loc 5 37 0
 2390 0012 314B     		ldr	r3, .L176
 2391 0014 1B68     		ldr	r3, [r3]
 2392 0016 7B61     		str	r3, [r7, #20]
 2393 0018 14E0     		b	.L166
 2394              	.L169:
  38:..\..\ugfx_2.7\ugfx_2.7\src\gdriver/gdriver.c **** 		if (pd->vmt == vmt)
 2395              		.loc 5 38 0
 2396 001a 7B69     		ldr	r3, [r7, #20]
 2397 001c 5A68     		ldr	r2, [r3, #4]
 2398 001e 7B68     		ldr	r3, [r7, #4]
 2399 0020 9A42     		cmp	r2, r3
 2400 0022 02D1     		bne	.L167
  39:..\..\ugfx_2.7\ugfx_2.7\src\gdriver/gdriver.c **** 			dinstance++;
 2401              		.loc 5 39 0
 2402 0024 3B69     		ldr	r3, [r7, #16]
 2403 0026 0133     		adds	r3, r3, #1
 2404 0028 3B61     		str	r3, [r7, #16]
 2405              	.L167:
  40:..\..\ugfx_2.7\ugfx_2.7\src\gdriver/gdriver.c **** 		if (pd->vmt->type == vmt->type)
 2406              		.loc 5 40 0
 2407 002a 7B69     		ldr	r3, [r7, #20]
 2408 002c 5B68     		ldr	r3, [r3, #4]
 2409 002e 1A88     		ldrh	r2, [r3]
 2410 0030 7B68     		ldr	r3, [r7, #4]
 2411 0032 1B88     		ldrh	r3, [r3]
 2412 0034 9A42     		cmp	r2, r3
 2413 0036 02D1     		bne	.L168
  41:..\..\ugfx_2.7\ugfx_2.7\src\gdriver/gdriver.c **** 			sinstance++;
 2414              		.loc 5 41 0
 2415 0038 FB68     		ldr	r3, [r7, #12]
 2416 003a 0133     		adds	r3, r3, #1
 2417 003c FB60     		str	r3, [r7, #12]
 2418              	.L168:
ARM GAS  C:\Users\megan\AppData\Local\Temp\ccVElWjj.s 			page 60


  37:..\..\ugfx_2.7\ugfx_2.7\src\gdriver/gdriver.c **** 		if (pd->vmt == vmt)
 2419              		.loc 5 37 0 discriminator 2
 2420 003e 7B69     		ldr	r3, [r7, #20]
 2421 0040 1B68     		ldr	r3, [r3]
 2422 0042 7B61     		str	r3, [r7, #20]
 2423              	.L166:
  37:..\..\ugfx_2.7\ugfx_2.7\src\gdriver/gdriver.c **** 		if (pd->vmt == vmt)
 2424              		.loc 5 37 0 is_stmt 0 discriminator 1
 2425 0044 7B69     		ldr	r3, [r7, #20]
 2426 0046 002B     		cmp	r3, #0
 2427 0048 E7D1     		bne	.L169
  42:..\..\ugfx_2.7\ugfx_2.7\src\gdriver/gdriver.c **** 	}
  43:..\..\ugfx_2.7\ugfx_2.7\src\gdriver/gdriver.c **** 
  44:..\..\ugfx_2.7\ugfx_2.7\src\gdriver/gdriver.c **** 	// Get a new driver instance of the correct size and initialize it
  45:..\..\ugfx_2.7\ugfx_2.7\src\gdriver/gdriver.c **** 	pd = gfxAlloc(vmt->objsize);
 2428              		.loc 5 45 0 is_stmt 1
 2429 004a 7B68     		ldr	r3, [r7, #4]
 2430 004c 5B68     		ldr	r3, [r3, #4]
 2431 004e 1800     		movs	r0, r3
 2432 0050 FFF7FEFF 		bl	gfxAlloc
 2433 0054 0300     		movs	r3, r0
 2434 0056 7B61     		str	r3, [r7, #20]
  46:..\..\ugfx_2.7\ugfx_2.7\src\gdriver/gdriver.c **** 	if (!pd)
 2435              		.loc 5 46 0
 2436 0058 7B69     		ldr	r3, [r7, #20]
 2437 005a 002B     		cmp	r3, #0
 2438 005c 01D1     		bne	.L170
  47:..\..\ugfx_2.7\ugfx_2.7\src\gdriver/gdriver.c **** 		return 0;
 2439              		.loc 5 47 0
 2440 005e 0023     		movs	r3, #0
 2441 0060 35E0     		b	.L171
 2442              	.L170:
  48:..\..\ugfx_2.7\ugfx_2.7\src\gdriver/gdriver.c ****     memset(pd, 0, vmt->objsize);
 2443              		.loc 5 48 0
 2444 0062 7B68     		ldr	r3, [r7, #4]
 2445 0064 5A68     		ldr	r2, [r3, #4]
 2446 0066 7B69     		ldr	r3, [r7, #20]
 2447 0068 0021     		movs	r1, #0
 2448 006a 1800     		movs	r0, r3
 2449 006c FFF7FEFF 		bl	memset
  49:..\..\ugfx_2.7\ugfx_2.7\src\gdriver/gdriver.c **** 	pd->vmt = vmt;
 2450              		.loc 5 49 0
 2451 0070 7B69     		ldr	r3, [r7, #20]
 2452 0072 7A68     		ldr	r2, [r7, #4]
 2453 0074 5A60     		str	r2, [r3, #4]
  50:..\..\ugfx_2.7\ugfx_2.7\src\gdriver/gdriver.c **** 	if (vmt->init && !vmt->init(pd, param, dinstance, sinstance)) {
 2454              		.loc 5 50 0
 2455 0076 7B68     		ldr	r3, [r7, #4]
 2456 0078 9B68     		ldr	r3, [r3, #8]
 2457 007a 002B     		cmp	r3, #0
 2458 007c 0ED0     		beq	.L172
 2459              		.loc 5 50 0 is_stmt 0 discriminator 1
 2460 007e 7B68     		ldr	r3, [r7, #4]
 2461 0080 9C68     		ldr	r4, [r3, #8]
 2462 0082 FB68     		ldr	r3, [r7, #12]
 2463 0084 3A69     		ldr	r2, [r7, #16]
 2464 0086 3968     		ldr	r1, [r7]
ARM GAS  C:\Users\megan\AppData\Local\Temp\ccVElWjj.s 			page 61


 2465 0088 7869     		ldr	r0, [r7, #20]
 2466 008a A047     		blx	r4
 2467 008c 031E     		subs	r3, r0, #0
 2468 008e 05D1     		bne	.L172
  51:..\..\ugfx_2.7\ugfx_2.7\src\gdriver/gdriver.c **** 		gfxFree(pd);
 2469              		.loc 5 51 0 is_stmt 1
 2470 0090 7B69     		ldr	r3, [r7, #20]
 2471 0092 1800     		movs	r0, r3
 2472 0094 FFF7FEFF 		bl	gfxFree
  52:..\..\ugfx_2.7\ugfx_2.7\src\gdriver/gdriver.c **** 		return 0;
 2473              		.loc 5 52 0
 2474 0098 0023     		movs	r3, #0
 2475 009a 18E0     		b	.L171
 2476              	.L172:
  53:..\..\ugfx_2.7\ugfx_2.7\src\gdriver/gdriver.c **** 	}
  54:..\..\ugfx_2.7\ugfx_2.7\src\gdriver/gdriver.c **** 
  55:..\..\ugfx_2.7\ugfx_2.7\src\gdriver/gdriver.c **** 	// Add it to the driver chain (at the end)
  56:..\..\ugfx_2.7\ugfx_2.7\src\gdriver/gdriver.c **** 	if (dhead)
 2477              		.loc 5 56 0
 2478 009c 0E4B     		ldr	r3, .L176
 2479 009e 1B68     		ldr	r3, [r3]
 2480 00a0 002B     		cmp	r3, #0
 2481 00a2 04D0     		beq	.L173
  57:..\..\ugfx_2.7\ugfx_2.7\src\gdriver/gdriver.c **** 		dtail->driverchain = pd;
 2482              		.loc 5 57 0
 2483 00a4 0D4B     		ldr	r3, .L176+4
 2484 00a6 1B68     		ldr	r3, [r3]
 2485 00a8 7A69     		ldr	r2, [r7, #20]
 2486 00aa 1A60     		str	r2, [r3]
 2487 00ac 02E0     		b	.L174
 2488              	.L173:
  58:..\..\ugfx_2.7\ugfx_2.7\src\gdriver/gdriver.c **** 	else
  59:..\..\ugfx_2.7\ugfx_2.7\src\gdriver/gdriver.c **** 		dhead = pd;
 2489              		.loc 5 59 0
 2490 00ae 0A4B     		ldr	r3, .L176
 2491 00b0 7A69     		ldr	r2, [r7, #20]
 2492 00b2 1A60     		str	r2, [r3]
 2493              	.L174:
  60:..\..\ugfx_2.7\ugfx_2.7\src\gdriver/gdriver.c **** 	dtail = pd;
 2494              		.loc 5 60 0
 2495 00b4 094B     		ldr	r3, .L176+4
 2496 00b6 7A69     		ldr	r2, [r7, #20]
 2497 00b8 1A60     		str	r2, [r3]
  61:..\..\ugfx_2.7\ugfx_2.7\src\gdriver/gdriver.c **** 
  62:..\..\ugfx_2.7\ugfx_2.7\src\gdriver/gdriver.c **** 	// Do the post init
  63:..\..\ugfx_2.7\ugfx_2.7\src\gdriver/gdriver.c **** 	if (vmt->postinit)
 2498              		.loc 5 63 0
 2499 00ba 7B68     		ldr	r3, [r7, #4]
 2500 00bc DB68     		ldr	r3, [r3, #12]
 2501 00be 002B     		cmp	r3, #0
 2502 00c0 04D0     		beq	.L175
  64:..\..\ugfx_2.7\ugfx_2.7\src\gdriver/gdriver.c **** 		vmt->postinit(pd);
 2503              		.loc 5 64 0
 2504 00c2 7B68     		ldr	r3, [r7, #4]
 2505 00c4 DB68     		ldr	r3, [r3, #12]
 2506 00c6 7A69     		ldr	r2, [r7, #20]
 2507 00c8 1000     		movs	r0, r2
ARM GAS  C:\Users\megan\AppData\Local\Temp\ccVElWjj.s 			page 62


 2508 00ca 9847     		blx	r3
 2509              	.L175:
  65:..\..\ugfx_2.7\ugfx_2.7\src\gdriver/gdriver.c **** 
  66:..\..\ugfx_2.7\ugfx_2.7\src\gdriver/gdriver.c **** 	return pd;
 2510              		.loc 5 66 0
 2511 00cc 7B69     		ldr	r3, [r7, #20]
 2512              	.L171:
  67:..\..\ugfx_2.7\ugfx_2.7\src\gdriver/gdriver.c **** }
 2513              		.loc 5 67 0
 2514 00ce 1800     		movs	r0, r3
 2515 00d0 BD46     		mov	sp, r7
 2516 00d2 07B0     		add	sp, sp, #28
 2517              		@ sp needed
 2518 00d4 90BD     		pop	{r4, r7, pc}
 2519              	.L177:
 2520 00d6 C046     		.align	2
 2521              	.L176:
 2522 00d8 9C000000 		.word	dhead
 2523 00dc A0000000 		.word	dtail
 2524              		.cfi_endproc
 2525              	.LFE39:
 2526              		.size	gdriverRegister, .-gdriverRegister
 2527              		.section	.text.gdriverUnRegister,"ax",%progbits
 2528              		.align	2
 2529              		.global	gdriverUnRegister
 2530              		.code	16
 2531              		.thumb_func
 2532              		.type	gdriverUnRegister, %function
 2533              	gdriverUnRegister:
 2534              	.LFB40:
  68:..\..\ugfx_2.7\ugfx_2.7\src\gdriver/gdriver.c **** 
  69:..\..\ugfx_2.7\ugfx_2.7\src\gdriver/gdriver.c **** void gdriverUnRegister(GDriver *driver) {
 2535              		.loc 5 69 0
 2536              		.cfi_startproc
 2537              		@ args = 0, pretend = 0, frame = 16
 2538              		@ frame_needed = 1, uses_anonymous_args = 0
 2539 0000 80B5     		push	{r7, lr}
 2540              		.cfi_def_cfa_offset 8
 2541              		.cfi_offset 7, -8
 2542              		.cfi_offset 14, -4
 2543 0002 84B0     		sub	sp, sp, #16
 2544              		.cfi_def_cfa_offset 24
 2545 0004 00AF     		add	r7, sp, #0
 2546              		.cfi_def_cfa_register 7
 2547 0006 7860     		str	r0, [r7, #4]
  70:..\..\ugfx_2.7\ugfx_2.7\src\gdriver/gdriver.c **** 	GDriver		*pd;
  71:..\..\ugfx_2.7\ugfx_2.7\src\gdriver/gdriver.c **** 
  72:..\..\ugfx_2.7\ugfx_2.7\src\gdriver/gdriver.c **** 	// Safety
  73:..\..\ugfx_2.7\ugfx_2.7\src\gdriver/gdriver.c **** 	if (!driver)
 2548              		.loc 5 73 0
 2549 0008 7B68     		ldr	r3, [r7, #4]
 2550 000a 002B     		cmp	r3, #0
 2551 000c 37D0     		beq	.L188
  74:..\..\ugfx_2.7\ugfx_2.7\src\gdriver/gdriver.c **** 		return;
  75:..\..\ugfx_2.7\ugfx_2.7\src\gdriver/gdriver.c **** 
  76:..\..\ugfx_2.7\ugfx_2.7\src\gdriver/gdriver.c **** 	// Remove it from the list of drivers
  77:..\..\ugfx_2.7\ugfx_2.7\src\gdriver/gdriver.c **** 	if (dhead == driver)
ARM GAS  C:\Users\megan\AppData\Local\Temp\ccVElWjj.s 			page 63


 2552              		.loc 5 77 0
 2553 000e 1E4B     		ldr	r3, .L190
 2554 0010 1A68     		ldr	r2, [r3]
 2555 0012 7B68     		ldr	r3, [r7, #4]
 2556 0014 9A42     		cmp	r2, r3
 2557 0016 04D1     		bne	.L181
  78:..\..\ugfx_2.7\ugfx_2.7\src\gdriver/gdriver.c **** 		dhead = driver->driverchain;
 2558              		.loc 5 78 0
 2559 0018 7B68     		ldr	r3, [r7, #4]
 2560 001a 1A68     		ldr	r2, [r3]
 2561 001c 1A4B     		ldr	r3, .L190
 2562 001e 1A60     		str	r2, [r3]
 2563 0020 1DE0     		b	.L182
 2564              	.L181:
  79:..\..\ugfx_2.7\ugfx_2.7\src\gdriver/gdriver.c **** 	else {
  80:..\..\ugfx_2.7\ugfx_2.7\src\gdriver/gdriver.c **** 		for(pd = dhead; pd->driverchain; pd = pd->driverchain) {
 2565              		.loc 5 80 0
 2566 0022 194B     		ldr	r3, .L190
 2567 0024 1B68     		ldr	r3, [r3]
 2568 0026 FB60     		str	r3, [r7, #12]
 2569 0028 13E0     		b	.L183
 2570              	.L186:
  81:..\..\ugfx_2.7\ugfx_2.7\src\gdriver/gdriver.c **** 			if (pd->driverchain == driver) {
 2571              		.loc 5 81 0
 2572 002a FB68     		ldr	r3, [r7, #12]
 2573 002c 1A68     		ldr	r2, [r3]
 2574 002e 7B68     		ldr	r3, [r7, #4]
 2575 0030 9A42     		cmp	r2, r3
 2576 0032 0BD1     		bne	.L184
  82:..\..\ugfx_2.7\ugfx_2.7\src\gdriver/gdriver.c **** 				pd->driverchain = driver->driverchain;
 2577              		.loc 5 82 0
 2578 0034 7B68     		ldr	r3, [r7, #4]
 2579 0036 1A68     		ldr	r2, [r3]
 2580 0038 FB68     		ldr	r3, [r7, #12]
 2581 003a 1A60     		str	r2, [r3]
  83:..\..\ugfx_2.7\ugfx_2.7\src\gdriver/gdriver.c **** 				if (!pd->driverchain)
 2582              		.loc 5 83 0
 2583 003c FB68     		ldr	r3, [r7, #12]
 2584 003e 1B68     		ldr	r3, [r3]
 2585 0040 002B     		cmp	r3, #0
 2586 0042 0BD1     		bne	.L189
  84:..\..\ugfx_2.7\ugfx_2.7\src\gdriver/gdriver.c **** 					dtail = pd;
 2587              		.loc 5 84 0
 2588 0044 114B     		ldr	r3, .L190+4
 2589 0046 FA68     		ldr	r2, [r7, #12]
 2590 0048 1A60     		str	r2, [r3]
  85:..\..\ugfx_2.7\ugfx_2.7\src\gdriver/gdriver.c **** 				break;
 2591              		.loc 5 85 0
 2592 004a 07E0     		b	.L189
 2593              	.L184:
  80:..\..\ugfx_2.7\ugfx_2.7\src\gdriver/gdriver.c **** 			if (pd->driverchain == driver) {
 2594              		.loc 5 80 0 discriminator 2
 2595 004c FB68     		ldr	r3, [r7, #12]
 2596 004e 1B68     		ldr	r3, [r3]
 2597 0050 FB60     		str	r3, [r7, #12]
 2598              	.L183:
  80:..\..\ugfx_2.7\ugfx_2.7\src\gdriver/gdriver.c **** 			if (pd->driverchain == driver) {
ARM GAS  C:\Users\megan\AppData\Local\Temp\ccVElWjj.s 			page 64


 2599              		.loc 5 80 0 is_stmt 0 discriminator 1
 2600 0052 FB68     		ldr	r3, [r7, #12]
 2601 0054 1B68     		ldr	r3, [r3]
 2602 0056 002B     		cmp	r3, #0
 2603 0058 E7D1     		bne	.L186
 2604 005a 00E0     		b	.L182
 2605              	.L189:
 2606              		.loc 5 85 0 is_stmt 1
 2607 005c C046     		nop
 2608              	.L182:
  86:..\..\ugfx_2.7\ugfx_2.7\src\gdriver/gdriver.c **** 			}
  87:..\..\ugfx_2.7\ugfx_2.7\src\gdriver/gdriver.c **** 		}
  88:..\..\ugfx_2.7\ugfx_2.7\src\gdriver/gdriver.c **** 	}
  89:..\..\ugfx_2.7\ugfx_2.7\src\gdriver/gdriver.c **** 
  90:..\..\ugfx_2.7\ugfx_2.7\src\gdriver/gdriver.c **** 	// Call the deinit()
  91:..\..\ugfx_2.7\ugfx_2.7\src\gdriver/gdriver.c **** 	if (driver->vmt->deinit)
 2609              		.loc 5 91 0
 2610 005e 7B68     		ldr	r3, [r7, #4]
 2611 0060 5B68     		ldr	r3, [r3, #4]
 2612 0062 1B69     		ldr	r3, [r3, #16]
 2613 0064 002B     		cmp	r3, #0
 2614 0066 05D0     		beq	.L187
  92:..\..\ugfx_2.7\ugfx_2.7\src\gdriver/gdriver.c **** 		driver->vmt->deinit(driver);
 2615              		.loc 5 92 0
 2616 0068 7B68     		ldr	r3, [r7, #4]
 2617 006a 5B68     		ldr	r3, [r3, #4]
 2618 006c 1B69     		ldr	r3, [r3, #16]
 2619 006e 7A68     		ldr	r2, [r7, #4]
 2620 0070 1000     		movs	r0, r2
 2621 0072 9847     		blx	r3
 2622              	.L187:
  93:..\..\ugfx_2.7\ugfx_2.7\src\gdriver/gdriver.c **** 
  94:..\..\ugfx_2.7\ugfx_2.7\src\gdriver/gdriver.c **** 	// Cleanup
  95:..\..\ugfx_2.7\ugfx_2.7\src\gdriver/gdriver.c **** 	gfxFree(driver);
 2623              		.loc 5 95 0
 2624 0074 7B68     		ldr	r3, [r7, #4]
 2625 0076 1800     		movs	r0, r3
 2626 0078 FFF7FEFF 		bl	gfxFree
 2627 007c 00E0     		b	.L178
 2628              	.L188:
  74:..\..\ugfx_2.7\ugfx_2.7\src\gdriver/gdriver.c **** 
 2629              		.loc 5 74 0
 2630 007e C046     		nop
 2631              	.L178:
  96:..\..\ugfx_2.7\ugfx_2.7\src\gdriver/gdriver.c **** }
 2632              		.loc 5 96 0
 2633 0080 BD46     		mov	sp, r7
 2634 0082 04B0     		add	sp, sp, #16
 2635              		@ sp needed
 2636 0084 80BD     		pop	{r7, pc}
 2637              	.L191:
 2638 0086 C046     		.align	2
 2639              	.L190:
 2640 0088 9C000000 		.word	dhead
 2641 008c A0000000 		.word	dtail
 2642              		.cfi_endproc
 2643              	.LFE40:
ARM GAS  C:\Users\megan\AppData\Local\Temp\ccVElWjj.s 			page 65


 2644              		.size	gdriverUnRegister, .-gdriverUnRegister
 2645              		.section	.text.gdriverGetInstance,"ax",%progbits
 2646              		.align	2
 2647              		.global	gdriverGetInstance
 2648              		.code	16
 2649              		.thumb_func
 2650              		.type	gdriverGetInstance, %function
 2651              	gdriverGetInstance:
 2652              	.LFB41:
  97:..\..\ugfx_2.7\ugfx_2.7\src\gdriver/gdriver.c **** 
  98:..\..\ugfx_2.7\ugfx_2.7\src\gdriver/gdriver.c **** GDriver *gdriverGetInstance(uint16_t type, unsigned instance) {
 2653              		.loc 5 98 0
 2654              		.cfi_startproc
 2655              		@ args = 0, pretend = 0, frame = 16
 2656              		@ frame_needed = 1, uses_anonymous_args = 0
 2657 0000 80B5     		push	{r7, lr}
 2658              		.cfi_def_cfa_offset 8
 2659              		.cfi_offset 7, -8
 2660              		.cfi_offset 14, -4
 2661 0002 84B0     		sub	sp, sp, #16
 2662              		.cfi_def_cfa_offset 24
 2663 0004 00AF     		add	r7, sp, #0
 2664              		.cfi_def_cfa_register 7
 2665 0006 0200     		movs	r2, r0
 2666 0008 3960     		str	r1, [r7]
 2667 000a BB1D     		adds	r3, r7, #6
 2668 000c 1A80     		strh	r2, [r3]
  99:..\..\ugfx_2.7\ugfx_2.7\src\gdriver/gdriver.c **** 	GDriver		*pd;
 100:..\..\ugfx_2.7\ugfx_2.7\src\gdriver/gdriver.c **** 	unsigned	sinstance;
 101:..\..\ugfx_2.7\ugfx_2.7\src\gdriver/gdriver.c **** 
 102:..\..\ugfx_2.7\ugfx_2.7\src\gdriver/gdriver.c **** 	// Loop to find the system instance
 103:..\..\ugfx_2.7\ugfx_2.7\src\gdriver/gdriver.c **** 	sinstance = 0;
 2669              		.loc 5 103 0
 2670 000e 0023     		movs	r3, #0
 2671 0010 BB60     		str	r3, [r7, #8]
 104:..\..\ugfx_2.7\ugfx_2.7\src\gdriver/gdriver.c **** 	for(pd = dhead; pd; pd = pd->driverchain) {
 2672              		.loc 5 104 0
 2673 0012 0F4B     		ldr	r3, .L198
 2674 0014 1B68     		ldr	r3, [r3]
 2675 0016 FB60     		str	r3, [r7, #12]
 2676 0018 12E0     		b	.L193
 2677              	.L197:
 105:..\..\ugfx_2.7\ugfx_2.7\src\gdriver/gdriver.c **** 		if (pd->vmt->type == type) {
 2678              		.loc 5 105 0
 2679 001a FB68     		ldr	r3, [r7, #12]
 2680 001c 5B68     		ldr	r3, [r3, #4]
 2681 001e 1B88     		ldrh	r3, [r3]
 2682 0020 BA1D     		adds	r2, r7, #6
 2683 0022 1288     		ldrh	r2, [r2]
 2684 0024 9A42     		cmp	r2, r3
 2685 0026 08D1     		bne	.L194
 106:..\..\ugfx_2.7\ugfx_2.7\src\gdriver/gdriver.c **** 			if (sinstance == instance)
 2686              		.loc 5 106 0
 2687 0028 BA68     		ldr	r2, [r7, #8]
 2688 002a 3B68     		ldr	r3, [r7]
 2689 002c 9A42     		cmp	r2, r3
 2690 002e 01D1     		bne	.L195
ARM GAS  C:\Users\megan\AppData\Local\Temp\ccVElWjj.s 			page 66


 107:..\..\ugfx_2.7\ugfx_2.7\src\gdriver/gdriver.c **** 				return pd;
 2691              		.loc 5 107 0
 2692 0030 FB68     		ldr	r3, [r7, #12]
 2693 0032 09E0     		b	.L196
 2694              	.L195:
 108:..\..\ugfx_2.7\ugfx_2.7\src\gdriver/gdriver.c **** 			sinstance++;
 2695              		.loc 5 108 0
 2696 0034 BB68     		ldr	r3, [r7, #8]
 2697 0036 0133     		adds	r3, r3, #1
 2698 0038 BB60     		str	r3, [r7, #8]
 2699              	.L194:
 104:..\..\ugfx_2.7\ugfx_2.7\src\gdriver/gdriver.c **** 		if (pd->vmt->type == type) {
 2700              		.loc 5 104 0 discriminator 2
 2701 003a FB68     		ldr	r3, [r7, #12]
 2702 003c 1B68     		ldr	r3, [r3]
 2703 003e FB60     		str	r3, [r7, #12]
 2704              	.L193:
 104:..\..\ugfx_2.7\ugfx_2.7\src\gdriver/gdriver.c **** 		if (pd->vmt->type == type) {
 2705              		.loc 5 104 0 is_stmt 0 discriminator 1
 2706 0040 FB68     		ldr	r3, [r7, #12]
 2707 0042 002B     		cmp	r3, #0
 2708 0044 E9D1     		bne	.L197
 109:..\..\ugfx_2.7\ugfx_2.7\src\gdriver/gdriver.c **** 		}
 110:..\..\ugfx_2.7\ugfx_2.7\src\gdriver/gdriver.c **** 	}
 111:..\..\ugfx_2.7\ugfx_2.7\src\gdriver/gdriver.c **** 	return 0;
 2709              		.loc 5 111 0 is_stmt 1
 2710 0046 0023     		movs	r3, #0
 2711              	.L196:
 112:..\..\ugfx_2.7\ugfx_2.7\src\gdriver/gdriver.c **** }
 2712              		.loc 5 112 0
 2713 0048 1800     		movs	r0, r3
 2714 004a BD46     		mov	sp, r7
 2715 004c 04B0     		add	sp, sp, #16
 2716              		@ sp needed
 2717 004e 80BD     		pop	{r7, pc}
 2718              	.L199:
 2719              		.align	2
 2720              	.L198:
 2721 0050 9C000000 		.word	dhead
 2722              		.cfi_endproc
 2723              	.LFE41:
 2724              		.size	gdriverGetInstance, .-gdriverGetInstance
 2725              		.section	.text.gdriverInstanceCount,"ax",%progbits
 2726              		.align	2
 2727              		.global	gdriverInstanceCount
 2728              		.code	16
 2729              		.thumb_func
 2730              		.type	gdriverInstanceCount, %function
 2731              	gdriverInstanceCount:
 2732              	.LFB42:
 113:..\..\ugfx_2.7\ugfx_2.7\src\gdriver/gdriver.c **** 
 114:..\..\ugfx_2.7\ugfx_2.7\src\gdriver/gdriver.c **** unsigned gdriverInstanceCount(uint16_t type) {
 2733              		.loc 5 114 0
 2734              		.cfi_startproc
 2735              		@ args = 0, pretend = 0, frame = 16
 2736              		@ frame_needed = 1, uses_anonymous_args = 0
 2737 0000 80B5     		push	{r7, lr}
ARM GAS  C:\Users\megan\AppData\Local\Temp\ccVElWjj.s 			page 67


 2738              		.cfi_def_cfa_offset 8
 2739              		.cfi_offset 7, -8
 2740              		.cfi_offset 14, -4
 2741 0002 84B0     		sub	sp, sp, #16
 2742              		.cfi_def_cfa_offset 24
 2743 0004 00AF     		add	r7, sp, #0
 2744              		.cfi_def_cfa_register 7
 2745 0006 0200     		movs	r2, r0
 2746 0008 BB1D     		adds	r3, r7, #6
 2747 000a 1A80     		strh	r2, [r3]
 115:..\..\ugfx_2.7\ugfx_2.7\src\gdriver/gdriver.c **** 	GDriver		*pd;
 116:..\..\ugfx_2.7\ugfx_2.7\src\gdriver/gdriver.c **** 	unsigned	sinstance;
 117:..\..\ugfx_2.7\ugfx_2.7\src\gdriver/gdriver.c **** 
 118:..\..\ugfx_2.7\ugfx_2.7\src\gdriver/gdriver.c **** 	// Loop to count the system instances
 119:..\..\ugfx_2.7\ugfx_2.7\src\gdriver/gdriver.c **** 	sinstance = 0;
 2748              		.loc 5 119 0
 2749 000c 0023     		movs	r3, #0
 2750 000e BB60     		str	r3, [r7, #8]
 120:..\..\ugfx_2.7\ugfx_2.7\src\gdriver/gdriver.c **** 	for(pd = dhead; pd; pd = pd->driverchain) {
 2751              		.loc 5 120 0
 2752 0010 0C4B     		ldr	r3, .L205
 2753 0012 1B68     		ldr	r3, [r3]
 2754 0014 FB60     		str	r3, [r7, #12]
 2755 0016 0CE0     		b	.L201
 2756              	.L203:
 121:..\..\ugfx_2.7\ugfx_2.7\src\gdriver/gdriver.c **** 		if (pd->vmt->type == type)
 2757              		.loc 5 121 0
 2758 0018 FB68     		ldr	r3, [r7, #12]
 2759 001a 5B68     		ldr	r3, [r3, #4]
 2760 001c 1B88     		ldrh	r3, [r3]
 2761 001e BA1D     		adds	r2, r7, #6
 2762 0020 1288     		ldrh	r2, [r2]
 2763 0022 9A42     		cmp	r2, r3
 2764 0024 02D1     		bne	.L202
 122:..\..\ugfx_2.7\ugfx_2.7\src\gdriver/gdriver.c **** 			sinstance++;
 2765              		.loc 5 122 0
 2766 0026 BB68     		ldr	r3, [r7, #8]
 2767 0028 0133     		adds	r3, r3, #1
 2768 002a BB60     		str	r3, [r7, #8]
 2769              	.L202:
 120:..\..\ugfx_2.7\ugfx_2.7\src\gdriver/gdriver.c **** 	for(pd = dhead; pd; pd = pd->driverchain) {
 2770              		.loc 5 120 0 discriminator 2
 2771 002c FB68     		ldr	r3, [r7, #12]
 2772 002e 1B68     		ldr	r3, [r3]
 2773 0030 FB60     		str	r3, [r7, #12]
 2774              	.L201:
 120:..\..\ugfx_2.7\ugfx_2.7\src\gdriver/gdriver.c **** 	for(pd = dhead; pd; pd = pd->driverchain) {
 2775              		.loc 5 120 0 is_stmt 0 discriminator 1
 2776 0032 FB68     		ldr	r3, [r7, #12]
 2777 0034 002B     		cmp	r3, #0
 2778 0036 EFD1     		bne	.L203
 123:..\..\ugfx_2.7\ugfx_2.7\src\gdriver/gdriver.c **** 	}
 124:..\..\ugfx_2.7\ugfx_2.7\src\gdriver/gdriver.c **** 	return sinstance;
 2779              		.loc 5 124 0 is_stmt 1
 2780 0038 BB68     		ldr	r3, [r7, #8]
 125:..\..\ugfx_2.7\ugfx_2.7\src\gdriver/gdriver.c **** }
 2781              		.loc 5 125 0
ARM GAS  C:\Users\megan\AppData\Local\Temp\ccVElWjj.s 			page 68


 2782 003a 1800     		movs	r0, r3
 2783 003c BD46     		mov	sp, r7
 2784 003e 04B0     		add	sp, sp, #16
 2785              		@ sp needed
 2786 0040 80BD     		pop	{r7, pc}
 2787              	.L206:
 2788 0042 C046     		.align	2
 2789              	.L205:
 2790 0044 9C000000 		.word	dhead
 2791              		.cfi_endproc
 2792              	.LFE42:
 2793              		.size	gdriverInstanceCount, .-gdriverInstanceCount
 2794              		.section	.text.gdriverGetNext,"ax",%progbits
 2795              		.align	2
 2796              		.global	gdriverGetNext
 2797              		.code	16
 2798              		.thumb_func
 2799              		.type	gdriverGetNext, %function
 2800              	gdriverGetNext:
 2801              	.LFB43:
 126:..\..\ugfx_2.7\ugfx_2.7\src\gdriver/gdriver.c **** 
 127:..\..\ugfx_2.7\ugfx_2.7\src\gdriver/gdriver.c **** GDriver *gdriverGetNext(uint16_t type, GDriver *driver) {
 2802              		.loc 5 127 0
 2803              		.cfi_startproc
 2804              		@ args = 0, pretend = 0, frame = 8
 2805              		@ frame_needed = 1, uses_anonymous_args = 0
 2806 0000 80B5     		push	{r7, lr}
 2807              		.cfi_def_cfa_offset 8
 2808              		.cfi_offset 7, -8
 2809              		.cfi_offset 14, -4
 2810 0002 82B0     		sub	sp, sp, #8
 2811              		.cfi_def_cfa_offset 16
 2812 0004 00AF     		add	r7, sp, #0
 2813              		.cfi_def_cfa_register 7
 2814 0006 0200     		movs	r2, r0
 2815 0008 3960     		str	r1, [r7]
 2816 000a BB1D     		adds	r3, r7, #6
 2817 000c 1A80     		strh	r2, [r3]
 128:..\..\ugfx_2.7\ugfx_2.7\src\gdriver/gdriver.c **** 	driver = driver ? driver->driverchain : dhead;
 2818              		.loc 5 128 0
 2819 000e 3B68     		ldr	r3, [r7]
 2820 0010 002B     		cmp	r3, #0
 2821 0012 02D0     		beq	.L208
 2822              		.loc 5 128 0 is_stmt 0 discriminator 1
 2823 0014 3B68     		ldr	r3, [r7]
 2824 0016 1B68     		ldr	r3, [r3]
 2825 0018 01E0     		b	.L209
 2826              	.L208:
 2827              		.loc 5 128 0 discriminator 2
 2828 001a 0B4B     		ldr	r3, .L214
 2829 001c 1B68     		ldr	r3, [r3]
 2830              	.L209:
 2831              		.loc 5 128 0 discriminator 4
 2832 001e 3B60     		str	r3, [r7]
 129:..\..\ugfx_2.7\ugfx_2.7\src\gdriver/gdriver.c **** 
 130:..\..\ugfx_2.7\ugfx_2.7\src\gdriver/gdriver.c **** 	while(driver && driver->vmt->type != type)
 2833              		.loc 5 130 0 is_stmt 1 discriminator 4
ARM GAS  C:\Users\megan\AppData\Local\Temp\ccVElWjj.s 			page 69


 2834 0020 02E0     		b	.L210
 2835              	.L212:
 131:..\..\ugfx_2.7\ugfx_2.7\src\gdriver/gdriver.c **** 		driver = driver->driverchain;
 2836              		.loc 5 131 0
 2837 0022 3B68     		ldr	r3, [r7]
 2838 0024 1B68     		ldr	r3, [r3]
 2839 0026 3B60     		str	r3, [r7]
 2840              	.L210:
 130:..\..\ugfx_2.7\ugfx_2.7\src\gdriver/gdriver.c **** 		driver = driver->driverchain;
 2841              		.loc 5 130 0
 2842 0028 3B68     		ldr	r3, [r7]
 2843 002a 002B     		cmp	r3, #0
 2844 002c 06D0     		beq	.L211
 130:..\..\ugfx_2.7\ugfx_2.7\src\gdriver/gdriver.c **** 		driver = driver->driverchain;
 2845              		.loc 5 130 0 is_stmt 0 discriminator 1
 2846 002e 3B68     		ldr	r3, [r7]
 2847 0030 5B68     		ldr	r3, [r3, #4]
 2848 0032 1B88     		ldrh	r3, [r3]
 2849 0034 BA1D     		adds	r2, r7, #6
 2850 0036 1288     		ldrh	r2, [r2]
 2851 0038 9A42     		cmp	r2, r3
 2852 003a F2D1     		bne	.L212
 2853              	.L211:
 132:..\..\ugfx_2.7\ugfx_2.7\src\gdriver/gdriver.c **** 
 133:..\..\ugfx_2.7\ugfx_2.7\src\gdriver/gdriver.c **** 	return driver;
 2854              		.loc 5 133 0 is_stmt 1
 2855 003c 3B68     		ldr	r3, [r7]
 134:..\..\ugfx_2.7\ugfx_2.7\src\gdriver/gdriver.c **** }
 2856              		.loc 5 134 0
 2857 003e 1800     		movs	r0, r3
 2858 0040 BD46     		mov	sp, r7
 2859 0042 02B0     		add	sp, sp, #8
 2860              		@ sp needed
 2861 0044 80BD     		pop	{r7, pc}
 2862              	.L215:
 2863 0046 C046     		.align	2
 2864              	.L214:
 2865 0048 9C000000 		.word	dhead
 2866              		.cfi_endproc
 2867              	.LFE43:
 2868              		.size	gdriverGetNext, .-gdriverGetNext
 2869              		.section	.text.gdriverGetDriverInstanceNumber,"ax",%progbits
 2870              		.align	2
 2871              		.global	gdriverGetDriverInstanceNumber
 2872              		.code	16
 2873              		.thumb_func
 2874              		.type	gdriverGetDriverInstanceNumber, %function
 2875              	gdriverGetDriverInstanceNumber:
 2876              	.LFB44:
 135:..\..\ugfx_2.7\ugfx_2.7\src\gdriver/gdriver.c **** 
 136:..\..\ugfx_2.7\ugfx_2.7\src\gdriver/gdriver.c **** unsigned gdriverGetDriverInstanceNumber(GDriver *driver) {
 2877              		.loc 5 136 0
 2878              		.cfi_startproc
 2879              		@ args = 0, pretend = 0, frame = 16
 2880              		@ frame_needed = 1, uses_anonymous_args = 0
 2881 0000 80B5     		push	{r7, lr}
 2882              		.cfi_def_cfa_offset 8
ARM GAS  C:\Users\megan\AppData\Local\Temp\ccVElWjj.s 			page 70


 2883              		.cfi_offset 7, -8
 2884              		.cfi_offset 14, -4
 2885 0002 84B0     		sub	sp, sp, #16
 2886              		.cfi_def_cfa_offset 24
 2887 0004 00AF     		add	r7, sp, #0
 2888              		.cfi_def_cfa_register 7
 2889 0006 7860     		str	r0, [r7, #4]
 137:..\..\ugfx_2.7\ugfx_2.7\src\gdriver/gdriver.c **** 	GDriver		*pd;
 138:..\..\ugfx_2.7\ugfx_2.7\src\gdriver/gdriver.c **** 	unsigned	instance;
 139:..\..\ugfx_2.7\ugfx_2.7\src\gdriver/gdriver.c **** 
 140:..\..\ugfx_2.7\ugfx_2.7\src\gdriver/gdriver.c **** 	// Loop to find the system instance
 141:..\..\ugfx_2.7\ugfx_2.7\src\gdriver/gdriver.c **** 	instance = 0;
 2890              		.loc 5 141 0
 2891 0008 0023     		movs	r3, #0
 2892 000a BB60     		str	r3, [r7, #8]
 142:..\..\ugfx_2.7\ugfx_2.7\src\gdriver/gdriver.c **** 	for(pd = dhead; pd; pd = pd->driverchain) {
 2893              		.loc 5 142 0
 2894 000c 104B     		ldr	r3, .L222
 2895 000e 1B68     		ldr	r3, [r3]
 2896 0010 FB60     		str	r3, [r7, #12]
 2897 0012 13E0     		b	.L217
 2898              	.L221:
 143:..\..\ugfx_2.7\ugfx_2.7\src\gdriver/gdriver.c **** 		if (pd == driver)
 2899              		.loc 5 143 0
 2900 0014 FA68     		ldr	r2, [r7, #12]
 2901 0016 7B68     		ldr	r3, [r7, #4]
 2902 0018 9A42     		cmp	r2, r3
 2903 001a 01D1     		bne	.L218
 144:..\..\ugfx_2.7\ugfx_2.7\src\gdriver/gdriver.c **** 			return instance;
 2904              		.loc 5 144 0
 2905 001c BB68     		ldr	r3, [r7, #8]
 2906 001e 12E0     		b	.L219
 2907              	.L218:
 145:..\..\ugfx_2.7\ugfx_2.7\src\gdriver/gdriver.c **** 		if (pd->vmt->type == driver->vmt->type)
 2908              		.loc 5 145 0
 2909 0020 FB68     		ldr	r3, [r7, #12]
 2910 0022 5B68     		ldr	r3, [r3, #4]
 2911 0024 1A88     		ldrh	r2, [r3]
 2912 0026 7B68     		ldr	r3, [r7, #4]
 2913 0028 5B68     		ldr	r3, [r3, #4]
 2914 002a 1B88     		ldrh	r3, [r3]
 2915 002c 9A42     		cmp	r2, r3
 2916 002e 02D1     		bne	.L220
 146:..\..\ugfx_2.7\ugfx_2.7\src\gdriver/gdriver.c **** 			instance++;
 2917              		.loc 5 146 0
 2918 0030 BB68     		ldr	r3, [r7, #8]
 2919 0032 0133     		adds	r3, r3, #1
 2920 0034 BB60     		str	r3, [r7, #8]
 2921              	.L220:
 142:..\..\ugfx_2.7\ugfx_2.7\src\gdriver/gdriver.c **** 		if (pd == driver)
 2922              		.loc 5 142 0 discriminator 2
 2923 0036 FB68     		ldr	r3, [r7, #12]
 2924 0038 1B68     		ldr	r3, [r3]
 2925 003a FB60     		str	r3, [r7, #12]
 2926              	.L217:
 142:..\..\ugfx_2.7\ugfx_2.7\src\gdriver/gdriver.c **** 		if (pd == driver)
 2927              		.loc 5 142 0 is_stmt 0 discriminator 1
ARM GAS  C:\Users\megan\AppData\Local\Temp\ccVElWjj.s 			page 71


 2928 003c FB68     		ldr	r3, [r7, #12]
 2929 003e 002B     		cmp	r3, #0
 2930 0040 E8D1     		bne	.L221
 147:..\..\ugfx_2.7\ugfx_2.7\src\gdriver/gdriver.c **** 	}
 148:..\..\ugfx_2.7\ugfx_2.7\src\gdriver/gdriver.c **** 	return (unsigned)-1;
 2931              		.loc 5 148 0 is_stmt 1
 2932 0042 0123     		movs	r3, #1
 2933 0044 5B42     		rsbs	r3, r3, #0
 2934              	.L219:
 149:..\..\ugfx_2.7\ugfx_2.7\src\gdriver/gdriver.c **** }
 2935              		.loc 5 149 0
 2936 0046 1800     		movs	r0, r3
 2937 0048 BD46     		mov	sp, r7
 2938 004a 04B0     		add	sp, sp, #16
 2939              		@ sp needed
 2940 004c 80BD     		pop	{r7, pc}
 2941              	.L223:
 2942 004e C046     		.align	2
 2943              	.L222:
 2944 0050 9C000000 		.word	dhead
 2945              		.cfi_endproc
 2946              	.LFE44:
 2947              		.size	gdriverGetDriverInstanceNumber, .-gdriverGetDriverInstanceNumber
 2948              		.comm	GDISP,4,4
 2949              		.section	.text.setglobalwindow,"ax",%progbits
 2950              		.align	2
 2951              		.code	16
 2952              		.thumb_func
 2953              		.type	setglobalwindow, %function
 2954              	setglobalwindow:
 2955              	.LFB45:
 2956              		.file 6 "..\\..\\ugfx_2.7\\ugfx_2.7\\src\\gdisp/gdisp.c"
   1:..\..\ugfx_2.7\ugfx_2.7\src\gdisp/gdisp.c **** /*
   2:..\..\ugfx_2.7\ugfx_2.7\src\gdisp/gdisp.c ****  * This file is subject to the terms of the GFX License. If a copy of
   3:..\..\ugfx_2.7\ugfx_2.7\src\gdisp/gdisp.c ****  * the license was not distributed with this file, you can obtain one at:
   4:..\..\ugfx_2.7\ugfx_2.7\src\gdisp/gdisp.c ****  *
   5:..\..\ugfx_2.7\ugfx_2.7\src\gdisp/gdisp.c ****  *              http://ugfx.org/license.html
   6:..\..\ugfx_2.7\ugfx_2.7\src\gdisp/gdisp.c ****  */
   7:..\..\ugfx_2.7\ugfx_2.7\src\gdisp/gdisp.c **** 
   8:..\..\ugfx_2.7\ugfx_2.7\src\gdisp/gdisp.c **** #include "../../gfx.h"
   9:..\..\ugfx_2.7\ugfx_2.7\src\gdisp/gdisp.c **** 
  10:..\..\ugfx_2.7\ugfx_2.7\src\gdisp/gdisp.c **** #if GFX_USE_GDISP
  11:..\..\ugfx_2.7\ugfx_2.7\src\gdisp/gdisp.c **** 
  12:..\..\ugfx_2.7\ugfx_2.7\src\gdisp/gdisp.c **** /* Include the low level driver information */
  13:..\..\ugfx_2.7\ugfx_2.7\src\gdisp/gdisp.c **** #include "gdisp_driver.h"
  14:..\..\ugfx_2.7\ugfx_2.7\src\gdisp/gdisp.c **** 
  15:..\..\ugfx_2.7\ugfx_2.7\src\gdisp/gdisp.c **** // Number of milliseconds for the startup logo - 0 means disabled.
  16:..\..\ugfx_2.7\ugfx_2.7\src\gdisp/gdisp.c **** #if GDISP_NEED_STARTUP_LOGO
  17:..\..\ugfx_2.7\ugfx_2.7\src\gdisp/gdisp.c **** 	#define GDISP_STARTUP_LOGO_TIMEOUT		1000
  18:..\..\ugfx_2.7\ugfx_2.7\src\gdisp/gdisp.c **** 	#define GDISP_STARTUP_LOGO_COLOR		White
  19:..\..\ugfx_2.7\ugfx_2.7\src\gdisp/gdisp.c **** #else
  20:..\..\ugfx_2.7\ugfx_2.7\src\gdisp/gdisp.c **** 	#define GDISP_STARTUP_LOGO_TIMEOUT		0
  21:..\..\ugfx_2.7\ugfx_2.7\src\gdisp/gdisp.c **** #endif
  22:..\..\ugfx_2.7\ugfx_2.7\src\gdisp/gdisp.c **** 
  23:..\..\ugfx_2.7\ugfx_2.7\src\gdisp/gdisp.c **** // For internal use only.
  24:..\..\ugfx_2.7\ugfx_2.7\src\gdisp/gdisp.c **** #if GDISP_NEED_TEXT_WORDWRAP
  25:..\..\ugfx_2.7\ugfx_2.7\src\gdisp/gdisp.c **** 	typedef struct wrapParameters {
ARM GAS  C:\Users\megan\AppData\Local\Temp\ccVElWjj.s 			page 72


  26:..\..\ugfx_2.7\ugfx_2.7\src\gdisp/gdisp.c **** 		GDisplay* g;
  27:..\..\ugfx_2.7\ugfx_2.7\src\gdisp/gdisp.c **** 		coord_t x;
  28:..\..\ugfx_2.7\ugfx_2.7\src\gdisp/gdisp.c **** 		coord_t y;
  29:..\..\ugfx_2.7\ugfx_2.7\src\gdisp/gdisp.c **** 		font_t font;
  30:..\..\ugfx_2.7\ugfx_2.7\src\gdisp/gdisp.c **** 		justify_t justify;
  31:..\..\ugfx_2.7\ugfx_2.7\src\gdisp/gdisp.c **** 	} wrapParameters_t;
  32:..\..\ugfx_2.7\ugfx_2.7\src\gdisp/gdisp.c **** #endif
  33:..\..\ugfx_2.7\ugfx_2.7\src\gdisp/gdisp.c **** 
  34:..\..\ugfx_2.7\ugfx_2.7\src\gdisp/gdisp.c **** /*===========================================================================*/
  35:..\..\ugfx_2.7\ugfx_2.7\src\gdisp/gdisp.c **** /* Driver local variables.                                                   */
  36:..\..\ugfx_2.7\ugfx_2.7\src\gdisp/gdisp.c **** /*===========================================================================*/
  37:..\..\ugfx_2.7\ugfx_2.7\src\gdisp/gdisp.c **** 
  38:..\..\ugfx_2.7\ugfx_2.7\src\gdisp/gdisp.c **** #if GDISP_NEED_TIMERFLUSH
  39:..\..\ugfx_2.7\ugfx_2.7\src\gdisp/gdisp.c **** 	static GTimer	FlushTimer;
  40:..\..\ugfx_2.7\ugfx_2.7\src\gdisp/gdisp.c **** #endif
  41:..\..\ugfx_2.7\ugfx_2.7\src\gdisp/gdisp.c **** 
  42:..\..\ugfx_2.7\ugfx_2.7\src\gdisp/gdisp.c **** GDisplay	*GDISP;
  43:..\..\ugfx_2.7\ugfx_2.7\src\gdisp/gdisp.c **** 
  44:..\..\ugfx_2.7\ugfx_2.7\src\gdisp/gdisp.c **** #if GDISP_NEED_MULTITHREAD
  45:..\..\ugfx_2.7\ugfx_2.7\src\gdisp/gdisp.c **** 	#define MUTEX_INIT(g)		gfxMutexInit(&(g)->mutex)
  46:..\..\ugfx_2.7\ugfx_2.7\src\gdisp/gdisp.c **** 	#define MUTEX_ENTER(g)		gfxMutexEnter(&(g)->mutex)
  47:..\..\ugfx_2.7\ugfx_2.7\src\gdisp/gdisp.c **** 	#define MUTEX_EXIT(g)		gfxMutexExit(&(g)->mutex)
  48:..\..\ugfx_2.7\ugfx_2.7\src\gdisp/gdisp.c **** 	#define MUTEX_DEINIT(g)		gfxMutexDestroy(&(g)->mutex)
  49:..\..\ugfx_2.7\ugfx_2.7\src\gdisp/gdisp.c **** #else
  50:..\..\ugfx_2.7\ugfx_2.7\src\gdisp/gdisp.c **** 	#define MUTEX_INIT(g)
  51:..\..\ugfx_2.7\ugfx_2.7\src\gdisp/gdisp.c **** 	#define MUTEX_ENTER(g)
  52:..\..\ugfx_2.7\ugfx_2.7\src\gdisp/gdisp.c **** 	#define MUTEX_EXIT(g)
  53:..\..\ugfx_2.7\ugfx_2.7\src\gdisp/gdisp.c **** 	#define MUTEX_DEINIT(g)
  54:..\..\ugfx_2.7\ugfx_2.7\src\gdisp/gdisp.c **** #endif
  55:..\..\ugfx_2.7\ugfx_2.7\src\gdisp/gdisp.c **** 
  56:..\..\ugfx_2.7\ugfx_2.7\src\gdisp/gdisp.c **** #define NEED_CLIPPING	(GDISP_HARDWARE_CLIP != TRUE && (GDISP_NEED_VALIDATION || GDISP_NEED_CLIP))
  57:..\..\ugfx_2.7\ugfx_2.7\src\gdisp/gdisp.c **** 
  58:..\..\ugfx_2.7\ugfx_2.7\src\gdisp/gdisp.c **** #if !NEED_CLIPPING
  59:..\..\ugfx_2.7\ugfx_2.7\src\gdisp/gdisp.c **** 	#define TEST_CLIP_AREA(g)
  60:..\..\ugfx_2.7\ugfx_2.7\src\gdisp/gdisp.c **** #elif GDISP_HARDWARE_CLIP == HARDWARE_AUTODETECT
  61:..\..\ugfx_2.7\ugfx_2.7\src\gdisp/gdisp.c **** 	#define TEST_CLIP_AREA(g)																					\
  62:..\..\ugfx_2.7\ugfx_2.7\src\gdisp/gdisp.c **** 			if (!gvmt(g)->setclip) {																				\
  63:..\..\ugfx_2.7\ugfx_2.7\src\gdisp/gdisp.c **** 				if ((g)->p.x < (g)->clipx0) { (g)->p.cx -= (g)->clipx0 - (g)->p.x; (g)->p.x = (g)->clipx0; }	\
  64:..\..\ugfx_2.7\ugfx_2.7\src\gdisp/gdisp.c **** 				if ((g)->p.y < (g)->clipy0) { (g)->p.cy -= (g)->clipy0 - (g)->p.y; (g)->p.y = (g)->clipy0; }	\
  65:..\..\ugfx_2.7\ugfx_2.7\src\gdisp/gdisp.c **** 				if ((g)->p.x + (g)->p.cx > (g)->clipx1)	(g)->p.cx = (g)->clipx1 - (g)->p.x;						\
  66:..\..\ugfx_2.7\ugfx_2.7\src\gdisp/gdisp.c **** 				if ((g)->p.y + (g)->p.cy > (g)->clipy1)	(g)->p.cy = (g)->clipy1 - (g)->p.y;						\
  67:..\..\ugfx_2.7\ugfx_2.7\src\gdisp/gdisp.c **** 			}																									\
  68:..\..\ugfx_2.7\ugfx_2.7\src\gdisp/gdisp.c **** 			if ((g)->p.cx > 0 && (g)->p.cy > 0)
  69:..\..\ugfx_2.7\ugfx_2.7\src\gdisp/gdisp.c **** #else
  70:..\..\ugfx_2.7\ugfx_2.7\src\gdisp/gdisp.c **** 	#define TEST_CLIP_AREA(g)																				\
  71:..\..\ugfx_2.7\ugfx_2.7\src\gdisp/gdisp.c **** 			if ((g)->p.x < (g)->clipx0) { (g)->p.cx -= (g)->clipx0 - (g)->p.x; (g)->p.x = (g)->clipx0; }	\
  72:..\..\ugfx_2.7\ugfx_2.7\src\gdisp/gdisp.c **** 			if ((g)->p.y < (g)->clipy0) { (g)->p.cy -= (g)->clipy0 - (g)->p.y; (g)->p.y = (g)->clipy0; }	\
  73:..\..\ugfx_2.7\ugfx_2.7\src\gdisp/gdisp.c **** 			if ((g)->p.x + (g)->p.cx > (g)->clipx1)	(g)->p.cx = (g)->clipx1 - (g)->p.x;						\
  74:..\..\ugfx_2.7\ugfx_2.7\src\gdisp/gdisp.c **** 			if ((g)->p.y + (g)->p.cy > (g)->clipy1)	(g)->p.cy = (g)->clipy1 - (g)->p.y;						\
  75:..\..\ugfx_2.7\ugfx_2.7\src\gdisp/gdisp.c **** 			if ((g)->p.cx > 0 && (g)->p.cy > 0)
  76:..\..\ugfx_2.7\ugfx_2.7\src\gdisp/gdisp.c **** #endif
  77:..\..\ugfx_2.7\ugfx_2.7\src\gdisp/gdisp.c **** 
  78:..\..\ugfx_2.7\ugfx_2.7\src\gdisp/gdisp.c **** /*==========================================================================*/
  79:..\..\ugfx_2.7\ugfx_2.7\src\gdisp/gdisp.c **** /* Internal functions.														*/
  80:..\..\ugfx_2.7\ugfx_2.7\src\gdisp/gdisp.c **** /*==========================================================================*/
  81:..\..\ugfx_2.7\ugfx_2.7\src\gdisp/gdisp.c **** 
  82:..\..\ugfx_2.7\ugfx_2.7\src\gdisp/gdisp.c **** #if GDISP_HARDWARE_STREAM_POS && GDISP_HARDWARE_STREAM_WRITE
ARM GAS  C:\Users\megan\AppData\Local\Temp\ccVElWjj.s 			page 73


  83:..\..\ugfx_2.7\ugfx_2.7\src\gdisp/gdisp.c **** 	static GFXINLINE void setglobalwindow(GDisplay *g) {
 2957              		.loc 6 83 0
 2958              		.cfi_startproc
 2959              		@ args = 0, pretend = 0, frame = 16
 2960              		@ frame_needed = 1, uses_anonymous_args = 0
 2961 0000 80B5     		push	{r7, lr}
 2962              		.cfi_def_cfa_offset 8
 2963              		.cfi_offset 7, -8
 2964              		.cfi_offset 14, -4
 2965 0002 84B0     		sub	sp, sp, #16
 2966              		.cfi_def_cfa_offset 24
 2967 0004 00AF     		add	r7, sp, #0
 2968              		.cfi_def_cfa_register 7
 2969 0006 7860     		str	r0, [r7, #4]
  84:..\..\ugfx_2.7\ugfx_2.7\src\gdisp/gdisp.c **** 		coord_t	x, y;
  85:..\..\ugfx_2.7\ugfx_2.7\src\gdisp/gdisp.c **** 		x = g->p.x; y = g->p.y;
 2970              		.loc 6 85 0
 2971 0008 0E23     		movs	r3, #14
 2972 000a FB18     		adds	r3, r7, r3
 2973 000c 7A68     		ldr	r2, [r7, #4]
 2974 000e 128D     		ldrh	r2, [r2, #40]
 2975 0010 1A80     		strh	r2, [r3]
 2976 0012 0C23     		movs	r3, #12
 2977 0014 FB18     		adds	r3, r7, r3
 2978 0016 7A68     		ldr	r2, [r7, #4]
 2979 0018 528D     		ldrh	r2, [r2, #42]
 2980 001a 1A80     		strh	r2, [r3]
  86:..\..\ugfx_2.7\ugfx_2.7\src\gdisp/gdisp.c **** 		g->p.x = g->p.y = 0;
 2981              		.loc 6 86 0
 2982 001c 7B68     		ldr	r3, [r7, #4]
 2983 001e 0022     		movs	r2, #0
 2984 0020 5A85     		strh	r2, [r3, #42]
 2985 0022 7B68     		ldr	r3, [r7, #4]
 2986 0024 2A22     		movs	r2, #42
 2987 0026 9A5E     		ldrsh	r2, [r3, r2]
 2988 0028 7B68     		ldr	r3, [r7, #4]
 2989 002a 1A85     		strh	r2, [r3, #40]
  87:..\..\ugfx_2.7\ugfx_2.7\src\gdisp/gdisp.c **** 		g->p.cx = g->g.Width; g->p.cy = g->g.Height;
 2990              		.loc 6 87 0
 2991 002c 7B68     		ldr	r3, [r7, #4]
 2992 002e 0822     		movs	r2, #8
 2993 0030 9A5E     		ldrsh	r2, [r3, r2]
 2994 0032 7B68     		ldr	r3, [r7, #4]
 2995 0034 9A85     		strh	r2, [r3, #44]
 2996 0036 7B68     		ldr	r3, [r7, #4]
 2997 0038 0A22     		movs	r2, #10
 2998 003a 9A5E     		ldrsh	r2, [r3, r2]
 2999 003c 7B68     		ldr	r3, [r7, #4]
 3000 003e DA85     		strh	r2, [r3, #46]
  88:..\..\ugfx_2.7\ugfx_2.7\src\gdisp/gdisp.c **** 		gdisp_lld_write_start(g);
 3001              		.loc 6 88 0
 3002 0040 7B68     		ldr	r3, [r7, #4]
 3003 0042 1800     		movs	r0, r3
 3004 0044 FFF7FEFF 		bl	gdisp_lld_write_start
  89:..\..\ugfx_2.7\ugfx_2.7\src\gdisp/gdisp.c **** 		g->p.x = x; g->p.y = y;
 3005              		.loc 6 89 0
 3006 0048 7B68     		ldr	r3, [r7, #4]
ARM GAS  C:\Users\megan\AppData\Local\Temp\ccVElWjj.s 			page 74


 3007 004a 0E22     		movs	r2, #14
 3008 004c BA18     		adds	r2, r7, r2
 3009 004e 1288     		ldrh	r2, [r2]
 3010 0050 1A85     		strh	r2, [r3, #40]
 3011 0052 7B68     		ldr	r3, [r7, #4]
 3012 0054 0C22     		movs	r2, #12
 3013 0056 BA18     		adds	r2, r7, r2
 3014 0058 1288     		ldrh	r2, [r2]
 3015 005a 5A85     		strh	r2, [r3, #42]
  90:..\..\ugfx_2.7\ugfx_2.7\src\gdisp/gdisp.c **** 		g->flags |= GDISP_FLG_SCRSTREAM;
 3016              		.loc 6 90 0
 3017 005c 7B68     		ldr	r3, [r7, #4]
 3018 005e DB8B     		ldrh	r3, [r3, #30]
 3019 0060 0222     		movs	r2, #2
 3020 0062 1343     		orrs	r3, r2
 3021 0064 9AB2     		uxth	r2, r3
 3022 0066 7B68     		ldr	r3, [r7, #4]
 3023 0068 DA83     		strh	r2, [r3, #30]
  91:..\..\ugfx_2.7\ugfx_2.7\src\gdisp/gdisp.c **** 	}
 3024              		.loc 6 91 0
 3025 006a C046     		nop
 3026 006c BD46     		mov	sp, r7
 3027 006e 04B0     		add	sp, sp, #16
 3028              		@ sp needed
 3029 0070 80BD     		pop	{r7, pc}
 3030              		.cfi_endproc
 3031              	.LFE45:
 3032              		.size	setglobalwindow, .-setglobalwindow
 3033 0072 C046     		.section	.text.drawpixel,"ax",%progbits
 3034              		.align	2
 3035              		.code	16
 3036              		.thumb_func
 3037              		.type	drawpixel, %function
 3038              	drawpixel:
 3039              	.LFB46:
  92:..\..\ugfx_2.7\ugfx_2.7\src\gdisp/gdisp.c **** #endif
  93:..\..\ugfx_2.7\ugfx_2.7\src\gdisp/gdisp.c **** 
  94:..\..\ugfx_2.7\ugfx_2.7\src\gdisp/gdisp.c **** #if GDISP_NEED_AUTOFLUSH && GDISP_HARDWARE_FLUSH == HARDWARE_AUTODETECT
  95:..\..\ugfx_2.7\ugfx_2.7\src\gdisp/gdisp.c **** 	#define autoflush_stopdone(g)	if (gvmt(g)->flush) gdisp_lld_flush(g)
  96:..\..\ugfx_2.7\ugfx_2.7\src\gdisp/gdisp.c **** #elif GDISP_NEED_AUTOFLUSH && GDISP_HARDWARE_FLUSH
  97:..\..\ugfx_2.7\ugfx_2.7\src\gdisp/gdisp.c **** 	#define autoflush_stopdone(g)	gdisp_lld_flush(g)
  98:..\..\ugfx_2.7\ugfx_2.7\src\gdisp/gdisp.c **** #else
  99:..\..\ugfx_2.7\ugfx_2.7\src\gdisp/gdisp.c **** 	#define autoflush_stopdone(g)
 100:..\..\ugfx_2.7\ugfx_2.7\src\gdisp/gdisp.c **** #endif
 101:..\..\ugfx_2.7\ugfx_2.7\src\gdisp/gdisp.c **** 
 102:..\..\ugfx_2.7\ugfx_2.7\src\gdisp/gdisp.c **** #if GDISP_HARDWARE_STREAM_POS && GDISP_HARDWARE_STREAM_WRITE
 103:..\..\ugfx_2.7\ugfx_2.7\src\gdisp/gdisp.c **** 	#define autoflush(g)									\
 104:..\..\ugfx_2.7\ugfx_2.7\src\gdisp/gdisp.c **** 			{												\
 105:..\..\ugfx_2.7\ugfx_2.7\src\gdisp/gdisp.c **** 				if ((g->flags & GDISP_FLG_SCRSTREAM)) {		\
 106:..\..\ugfx_2.7\ugfx_2.7\src\gdisp/gdisp.c **** 					gdisp_lld_write_stop(g);				\
 107:..\..\ugfx_2.7\ugfx_2.7\src\gdisp/gdisp.c **** 					g->flags &= ~GDISP_FLG_SCRSTREAM;		\
 108:..\..\ugfx_2.7\ugfx_2.7\src\gdisp/gdisp.c **** 				}											\
 109:..\..\ugfx_2.7\ugfx_2.7\src\gdisp/gdisp.c **** 				autoflush_stopdone(g);						\
 110:..\..\ugfx_2.7\ugfx_2.7\src\gdisp/gdisp.c **** 			}
 111:..\..\ugfx_2.7\ugfx_2.7\src\gdisp/gdisp.c **** #else
 112:..\..\ugfx_2.7\ugfx_2.7\src\gdisp/gdisp.c **** 	#define autoflush(g)		autoflush_stopdone(g)
 113:..\..\ugfx_2.7\ugfx_2.7\src\gdisp/gdisp.c **** #endif
ARM GAS  C:\Users\megan\AppData\Local\Temp\ccVElWjj.s 			page 75


 114:..\..\ugfx_2.7\ugfx_2.7\src\gdisp/gdisp.c **** 
 115:..\..\ugfx_2.7\ugfx_2.7\src\gdisp/gdisp.c **** // drawpixel(g)
 116:..\..\ugfx_2.7\ugfx_2.7\src\gdisp/gdisp.c **** // Parameters:	x,y
 117:..\..\ugfx_2.7\ugfx_2.7\src\gdisp/gdisp.c **** // Alters:		cx, cy (if using streaming)
 118:..\..\ugfx_2.7\ugfx_2.7\src\gdisp/gdisp.c **** // Does not clip
 119:..\..\ugfx_2.7\ugfx_2.7\src\gdisp/gdisp.c **** static GFXINLINE void drawpixel(GDisplay *g) {
 3040              		.loc 6 119 0
 3041              		.cfi_startproc
 3042              		@ args = 0, pretend = 0, frame = 8
 3043              		@ frame_needed = 1, uses_anonymous_args = 0
 3044 0000 80B5     		push	{r7, lr}
 3045              		.cfi_def_cfa_offset 8
 3046              		.cfi_offset 7, -8
 3047              		.cfi_offset 14, -4
 3048 0002 82B0     		sub	sp, sp, #8
 3049              		.cfi_def_cfa_offset 16
 3050 0004 00AF     		add	r7, sp, #0
 3051              		.cfi_def_cfa_register 7
 3052 0006 7860     		str	r0, [r7, #4]
 120:..\..\ugfx_2.7\ugfx_2.7\src\gdisp/gdisp.c **** 
 121:..\..\ugfx_2.7\ugfx_2.7\src\gdisp/gdisp.c **** 	// Best is hardware accelerated pixel draw
 122:..\..\ugfx_2.7\ugfx_2.7\src\gdisp/gdisp.c **** 	#if GDISP_HARDWARE_DRAWPIXEL
 123:..\..\ugfx_2.7\ugfx_2.7\src\gdisp/gdisp.c **** 		#if GDISP_HARDWARE_DRAWPIXEL == HARDWARE_AUTODETECT
 124:..\..\ugfx_2.7\ugfx_2.7\src\gdisp/gdisp.c **** 			if (gvmt(g)->pixel)
 125:..\..\ugfx_2.7\ugfx_2.7\src\gdisp/gdisp.c **** 		#endif
 126:..\..\ugfx_2.7\ugfx_2.7\src\gdisp/gdisp.c **** 		{
 127:..\..\ugfx_2.7\ugfx_2.7\src\gdisp/gdisp.c **** 			gdisp_lld_draw_pixel(g);
 128:..\..\ugfx_2.7\ugfx_2.7\src\gdisp/gdisp.c **** 			return;
 129:..\..\ugfx_2.7\ugfx_2.7\src\gdisp/gdisp.c **** 		}
 130:..\..\ugfx_2.7\ugfx_2.7\src\gdisp/gdisp.c **** 	#endif
 131:..\..\ugfx_2.7\ugfx_2.7\src\gdisp/gdisp.c **** 
 132:..\..\ugfx_2.7\ugfx_2.7\src\gdisp/gdisp.c **** 	// Next best is cursor based streaming
 133:..\..\ugfx_2.7\ugfx_2.7\src\gdisp/gdisp.c **** 	#if GDISP_HARDWARE_DRAWPIXEL != TRUE && GDISP_HARDWARE_STREAM_POS && GDISP_HARDWARE_STREAM_WRITE
 134:..\..\ugfx_2.7\ugfx_2.7\src\gdisp/gdisp.c **** 		#if GDISP_HARDWARE_STREAM_POS == HARDWARE_AUTODETECT
 135:..\..\ugfx_2.7\ugfx_2.7\src\gdisp/gdisp.c **** 			if (gvmt(g)->writepos)
 136:..\..\ugfx_2.7\ugfx_2.7\src\gdisp/gdisp.c **** 		#endif
 137:..\..\ugfx_2.7\ugfx_2.7\src\gdisp/gdisp.c **** 		{
 138:..\..\ugfx_2.7\ugfx_2.7\src\gdisp/gdisp.c **** 			if (!(g->flags & GDISP_FLG_SCRSTREAM))
 3053              		.loc 6 138 0
 3054 0008 7B68     		ldr	r3, [r7, #4]
 3055 000a DB8B     		ldrh	r3, [r3, #30]
 3056 000c 1A00     		movs	r2, r3
 3057 000e 0223     		movs	r3, #2
 3058 0010 1340     		ands	r3, r2
 3059 0012 03D1     		bne	.L226
 139:..\..\ugfx_2.7\ugfx_2.7\src\gdisp/gdisp.c **** 				setglobalwindow(g);
 3060              		.loc 6 139 0
 3061 0014 7B68     		ldr	r3, [r7, #4]
 3062 0016 1800     		movs	r0, r3
 3063 0018 FFF7FEFF 		bl	setglobalwindow
 3064              	.L226:
 140:..\..\ugfx_2.7\ugfx_2.7\src\gdisp/gdisp.c **** 			gdisp_lld_write_pos(g);
 3065              		.loc 6 140 0
 3066 001c 7B68     		ldr	r3, [r7, #4]
 3067 001e 1800     		movs	r0, r3
 3068 0020 FFF7FEFF 		bl	gdisp_lld_write_pos
 141:..\..\ugfx_2.7\ugfx_2.7\src\gdisp/gdisp.c **** 			gdisp_lld_write_color(g);
ARM GAS  C:\Users\megan\AppData\Local\Temp\ccVElWjj.s 			page 76


 3069              		.loc 6 141 0
 3070 0024 7B68     		ldr	r3, [r7, #4]
 3071 0026 1800     		movs	r0, r3
 3072 0028 FFF7FEFF 		bl	gdisp_lld_write_color
 142:..\..\ugfx_2.7\ugfx_2.7\src\gdisp/gdisp.c **** 			return;
 3073              		.loc 6 142 0
 3074 002c C046     		nop
 143:..\..\ugfx_2.7\ugfx_2.7\src\gdisp/gdisp.c **** 		}
 144:..\..\ugfx_2.7\ugfx_2.7\src\gdisp/gdisp.c **** 	#endif
 145:..\..\ugfx_2.7\ugfx_2.7\src\gdisp/gdisp.c **** 
 146:..\..\ugfx_2.7\ugfx_2.7\src\gdisp/gdisp.c **** 	// Worst is general streaming
 147:..\..\ugfx_2.7\ugfx_2.7\src\gdisp/gdisp.c **** 	#if GDISP_HARDWARE_DRAWPIXEL != TRUE && GDISP_HARDWARE_STREAM_POS != TRUE && GDISP_HARDWARE_STREAM
 148:..\..\ugfx_2.7\ugfx_2.7\src\gdisp/gdisp.c **** 		// The following test is unneeded because we are guaranteed to have streaming if we don't have dr
 149:..\..\ugfx_2.7\ugfx_2.7\src\gdisp/gdisp.c **** 		//#if GDISP_HARDWARE_STREAM_WRITE == HARDWARE_AUTODETECT
 150:..\..\ugfx_2.7\ugfx_2.7\src\gdisp/gdisp.c **** 		//	if (gvmt(g)->writestart)
 151:..\..\ugfx_2.7\ugfx_2.7\src\gdisp/gdisp.c **** 		//#endif
 152:..\..\ugfx_2.7\ugfx_2.7\src\gdisp/gdisp.c **** 		{
 153:..\..\ugfx_2.7\ugfx_2.7\src\gdisp/gdisp.c **** 			g->p.cx = g->p.cy = 1;
 154:..\..\ugfx_2.7\ugfx_2.7\src\gdisp/gdisp.c **** 			gdisp_lld_write_start(g);
 155:..\..\ugfx_2.7\ugfx_2.7\src\gdisp/gdisp.c **** 			gdisp_lld_write_color(g);
 156:..\..\ugfx_2.7\ugfx_2.7\src\gdisp/gdisp.c **** 			gdisp_lld_write_stop(g);
 157:..\..\ugfx_2.7\ugfx_2.7\src\gdisp/gdisp.c **** 			return;
 158:..\..\ugfx_2.7\ugfx_2.7\src\gdisp/gdisp.c **** 		}
 159:..\..\ugfx_2.7\ugfx_2.7\src\gdisp/gdisp.c **** 	#endif
 160:..\..\ugfx_2.7\ugfx_2.7\src\gdisp/gdisp.c **** }
 3075              		.loc 6 160 0
 3076 002e BD46     		mov	sp, r7
 3077 0030 02B0     		add	sp, sp, #8
 3078              		@ sp needed
 3079 0032 80BD     		pop	{r7, pc}
 3080              		.cfi_endproc
 3081              	.LFE46:
 3082              		.size	drawpixel, .-drawpixel
 3083              		.section	.text.drawpixel_clip,"ax",%progbits
 3084              		.align	2
 3085              		.code	16
 3086              		.thumb_func
 3087              		.type	drawpixel_clip, %function
 3088              	drawpixel_clip:
 3089              	.LFB47:
 161:..\..\ugfx_2.7\ugfx_2.7\src\gdisp/gdisp.c **** 
 162:..\..\ugfx_2.7\ugfx_2.7\src\gdisp/gdisp.c **** // drawpixel_clip(g)
 163:..\..\ugfx_2.7\ugfx_2.7\src\gdisp/gdisp.c **** // Parameters:	x,y
 164:..\..\ugfx_2.7\ugfx_2.7\src\gdisp/gdisp.c **** // Alters:		cx, cy (if using streaming)
 165:..\..\ugfx_2.7\ugfx_2.7\src\gdisp/gdisp.c **** #if NEED_CLIPPING
 166:..\..\ugfx_2.7\ugfx_2.7\src\gdisp/gdisp.c **** 	static GFXINLINE void drawpixel_clip(GDisplay *g) {
 3090              		.loc 6 166 0
 3091              		.cfi_startproc
 3092              		@ args = 0, pretend = 0, frame = 8
 3093              		@ frame_needed = 1, uses_anonymous_args = 0
 3094 0000 80B5     		push	{r7, lr}
 3095              		.cfi_def_cfa_offset 8
 3096              		.cfi_offset 7, -8
 3097              		.cfi_offset 14, -4
 3098 0002 82B0     		sub	sp, sp, #8
 3099              		.cfi_def_cfa_offset 16
 3100 0004 00AF     		add	r7, sp, #0
ARM GAS  C:\Users\megan\AppData\Local\Temp\ccVElWjj.s 			page 77


 3101              		.cfi_def_cfa_register 7
 3102 0006 7860     		str	r0, [r7, #4]
 167:..\..\ugfx_2.7\ugfx_2.7\src\gdisp/gdisp.c **** 		#if GDISP_HARDWARE_CLIP == HARDWARE_AUTODETECT
 168:..\..\ugfx_2.7\ugfx_2.7\src\gdisp/gdisp.c **** 			if (!gvmt(g)->setclip)
 169:..\..\ugfx_2.7\ugfx_2.7\src\gdisp/gdisp.c **** 		#endif
 170:..\..\ugfx_2.7\ugfx_2.7\src\gdisp/gdisp.c **** 		{
 171:..\..\ugfx_2.7\ugfx_2.7\src\gdisp/gdisp.c **** 			if (g->p.x < g->clipx0 || g->p.x >= g->clipx1 || g->p.y < g->clipy0 || g->p.y >= g->clipy1)
 3103              		.loc 6 171 0
 3104 0008 7B68     		ldr	r3, [r7, #4]
 3105 000a 2822     		movs	r2, #40
 3106 000c 9A5E     		ldrsh	r2, [r3, r2]
 3107 000e 7B68     		ldr	r3, [r7, #4]
 3108 0010 2021     		movs	r1, #32
 3109 0012 5B5E     		ldrsh	r3, [r3, r1]
 3110 0014 9A42     		cmp	r2, r3
 3111 0016 1CDB     		blt	.L232
 3112              		.loc 6 171 0 is_stmt 0 discriminator 1
 3113 0018 7B68     		ldr	r3, [r7, #4]
 3114 001a 2822     		movs	r2, #40
 3115 001c 9A5E     		ldrsh	r2, [r3, r2]
 3116 001e 7B68     		ldr	r3, [r7, #4]
 3117 0020 2421     		movs	r1, #36
 3118 0022 5B5E     		ldrsh	r3, [r3, r1]
 3119 0024 9A42     		cmp	r2, r3
 3120 0026 14DA     		bge	.L232
 3121              		.loc 6 171 0 discriminator 2
 3122 0028 7B68     		ldr	r3, [r7, #4]
 3123 002a 2A22     		movs	r2, #42
 3124 002c 9A5E     		ldrsh	r2, [r3, r2]
 3125 002e 7B68     		ldr	r3, [r7, #4]
 3126 0030 2221     		movs	r1, #34
 3127 0032 5B5E     		ldrsh	r3, [r3, r1]
 3128 0034 9A42     		cmp	r2, r3
 3129 0036 0CDB     		blt	.L232
 3130              		.loc 6 171 0 discriminator 3
 3131 0038 7B68     		ldr	r3, [r7, #4]
 3132 003a 2A22     		movs	r2, #42
 3133 003c 9A5E     		ldrsh	r2, [r3, r2]
 3134 003e 7B68     		ldr	r3, [r7, #4]
 3135 0040 2621     		movs	r1, #38
 3136 0042 5B5E     		ldrsh	r3, [r3, r1]
 3137 0044 9A42     		cmp	r2, r3
 3138 0046 04DA     		bge	.L232
 172:..\..\ugfx_2.7\ugfx_2.7\src\gdisp/gdisp.c **** 				return;
 173:..\..\ugfx_2.7\ugfx_2.7\src\gdisp/gdisp.c **** 		}
 174:..\..\ugfx_2.7\ugfx_2.7\src\gdisp/gdisp.c **** 		drawpixel(g);
 3139              		.loc 6 174 0 is_stmt 1
 3140 0048 7B68     		ldr	r3, [r7, #4]
 3141 004a 1800     		movs	r0, r3
 3142 004c FFF7FEFF 		bl	drawpixel
 3143 0050 00E0     		b	.L228
 3144              	.L232:
 172:..\..\ugfx_2.7\ugfx_2.7\src\gdisp/gdisp.c **** 				return;
 3145              		.loc 6 172 0
 3146 0052 C046     		nop
 3147              	.L228:
 175:..\..\ugfx_2.7\ugfx_2.7\src\gdisp/gdisp.c **** 	}
ARM GAS  C:\Users\megan\AppData\Local\Temp\ccVElWjj.s 			page 78


 3148              		.loc 6 175 0
 3149 0054 BD46     		mov	sp, r7
 3150 0056 02B0     		add	sp, sp, #8
 3151              		@ sp needed
 3152 0058 80BD     		pop	{r7, pc}
 3153              		.cfi_endproc
 3154              	.LFE47:
 3155              		.size	drawpixel_clip, .-drawpixel_clip
 3156 005a C046     		.section	.text.fillarea,"ax",%progbits
 3157              		.align	2
 3158              		.code	16
 3159              		.thumb_func
 3160              		.type	fillarea, %function
 3161              	fillarea:
 3162              	.LFB48:
 176:..\..\ugfx_2.7\ugfx_2.7\src\gdisp/gdisp.c **** #else
 177:..\..\ugfx_2.7\ugfx_2.7\src\gdisp/gdisp.c **** 	#define drawpixel_clip(g)		drawpixel(g)
 178:..\..\ugfx_2.7\ugfx_2.7\src\gdisp/gdisp.c **** #endif
 179:..\..\ugfx_2.7\ugfx_2.7\src\gdisp/gdisp.c **** 
 180:..\..\ugfx_2.7\ugfx_2.7\src\gdisp/gdisp.c **** // fillarea(g)
 181:..\..\ugfx_2.7\ugfx_2.7\src\gdisp/gdisp.c **** // Parameters:	x,y cx,cy and color
 182:..\..\ugfx_2.7\ugfx_2.7\src\gdisp/gdisp.c **** // Alters:		nothing
 183:..\..\ugfx_2.7\ugfx_2.7\src\gdisp/gdisp.c **** // Note:		This is not clipped
 184:..\..\ugfx_2.7\ugfx_2.7\src\gdisp/gdisp.c **** // Resets the streaming area if GDISP_HARDWARE_STREAM_WRITE and GDISP_HARDWARE_STREAM_POS is set.
 185:..\..\ugfx_2.7\ugfx_2.7\src\gdisp/gdisp.c **** static GFXINLINE void fillarea(GDisplay *g) {
 3163              		.loc 6 185 0
 3164              		.cfi_startproc
 3165              		@ args = 0, pretend = 0, frame = 16
 3166              		@ frame_needed = 1, uses_anonymous_args = 0
 3167 0000 80B5     		push	{r7, lr}
 3168              		.cfi_def_cfa_offset 8
 3169              		.cfi_offset 7, -8
 3170              		.cfi_offset 14, -4
 3171 0002 84B0     		sub	sp, sp, #16
 3172              		.cfi_def_cfa_offset 24
 3173 0004 00AF     		add	r7, sp, #0
 3174              		.cfi_def_cfa_register 7
 3175 0006 7860     		str	r0, [r7, #4]
 3176              	.LBB2:
 186:..\..\ugfx_2.7\ugfx_2.7\src\gdisp/gdisp.c **** 
 187:..\..\ugfx_2.7\ugfx_2.7\src\gdisp/gdisp.c **** 	// Best is hardware accelerated area fill
 188:..\..\ugfx_2.7\ugfx_2.7\src\gdisp/gdisp.c **** 	#if GDISP_HARDWARE_FILLS
 189:..\..\ugfx_2.7\ugfx_2.7\src\gdisp/gdisp.c **** 		#if GDISP_HARDWARE_FILLS == HARDWARE_AUTODETECT
 190:..\..\ugfx_2.7\ugfx_2.7\src\gdisp/gdisp.c **** 			if (gvmt(g)->fill)
 191:..\..\ugfx_2.7\ugfx_2.7\src\gdisp/gdisp.c **** 		#endif
 192:..\..\ugfx_2.7\ugfx_2.7\src\gdisp/gdisp.c **** 		{
 193:..\..\ugfx_2.7\ugfx_2.7\src\gdisp/gdisp.c **** 			gdisp_lld_fill_area(g);
 194:..\..\ugfx_2.7\ugfx_2.7\src\gdisp/gdisp.c **** 			return;
 195:..\..\ugfx_2.7\ugfx_2.7\src\gdisp/gdisp.c **** 		}
 196:..\..\ugfx_2.7\ugfx_2.7\src\gdisp/gdisp.c **** 	#endif
 197:..\..\ugfx_2.7\ugfx_2.7\src\gdisp/gdisp.c **** 
 198:..\..\ugfx_2.7\ugfx_2.7\src\gdisp/gdisp.c **** 	// Next best is hardware streaming
 199:..\..\ugfx_2.7\ugfx_2.7\src\gdisp/gdisp.c **** 	#if GDISP_HARDWARE_FILLS != TRUE && GDISP_HARDWARE_STREAM_WRITE
 200:..\..\ugfx_2.7\ugfx_2.7\src\gdisp/gdisp.c **** 		#if GDISP_HARDWARE_STREAM_WRITE == HARDWARE_AUTODETECT
 201:..\..\ugfx_2.7\ugfx_2.7\src\gdisp/gdisp.c **** 			if (gvmt(g)->writestart)
 202:..\..\ugfx_2.7\ugfx_2.7\src\gdisp/gdisp.c **** 		#endif
 203:..\..\ugfx_2.7\ugfx_2.7\src\gdisp/gdisp.c **** 		{
ARM GAS  C:\Users\megan\AppData\Local\Temp\ccVElWjj.s 			page 79


 204:..\..\ugfx_2.7\ugfx_2.7\src\gdisp/gdisp.c **** 			uint32_t	area;
 205:..\..\ugfx_2.7\ugfx_2.7\src\gdisp/gdisp.c **** 
 206:..\..\ugfx_2.7\ugfx_2.7\src\gdisp/gdisp.c **** 			#if GDISP_HARDWARE_STREAM_POS
 207:..\..\ugfx_2.7\ugfx_2.7\src\gdisp/gdisp.c **** 				if ((g->flags & GDISP_FLG_SCRSTREAM)) {
 3177              		.loc 6 207 0
 3178 0008 7B68     		ldr	r3, [r7, #4]
 3179 000a DB8B     		ldrh	r3, [r3, #30]
 3180 000c 1A00     		movs	r2, r3
 3181 000e 0223     		movs	r3, #2
 3182 0010 1340     		ands	r3, r2
 3183 0012 0AD0     		beq	.L234
 208:..\..\ugfx_2.7\ugfx_2.7\src\gdisp/gdisp.c **** 					gdisp_lld_write_stop(g);
 3184              		.loc 6 208 0
 3185 0014 7B68     		ldr	r3, [r7, #4]
 3186 0016 1800     		movs	r0, r3
 3187 0018 FFF7FEFF 		bl	gdisp_lld_write_stop
 209:..\..\ugfx_2.7\ugfx_2.7\src\gdisp/gdisp.c **** 					g->flags &= ~GDISP_FLG_SCRSTREAM;
 3188              		.loc 6 209 0
 3189 001c 7B68     		ldr	r3, [r7, #4]
 3190 001e DB8B     		ldrh	r3, [r3, #30]
 3191 0020 0222     		movs	r2, #2
 3192 0022 9343     		bics	r3, r2
 3193 0024 9AB2     		uxth	r2, r3
 3194 0026 7B68     		ldr	r3, [r7, #4]
 3195 0028 DA83     		strh	r2, [r3, #30]
 3196              	.L234:
 210:..\..\ugfx_2.7\ugfx_2.7\src\gdisp/gdisp.c **** 				}
 211:..\..\ugfx_2.7\ugfx_2.7\src\gdisp/gdisp.c **** 			#endif
 212:..\..\ugfx_2.7\ugfx_2.7\src\gdisp/gdisp.c **** 
 213:..\..\ugfx_2.7\ugfx_2.7\src\gdisp/gdisp.c **** 			area = (uint32_t)g->p.cx * g->p.cy;
 3197              		.loc 6 213 0
 3198 002a 7B68     		ldr	r3, [r7, #4]
 3199 002c 2C22     		movs	r2, #44
 3200 002e 9B5E     		ldrsh	r3, [r3, r2]
 3201 0030 1A00     		movs	r2, r3
 3202 0032 7B68     		ldr	r3, [r7, #4]
 3203 0034 2E21     		movs	r1, #46
 3204 0036 5B5E     		ldrsh	r3, [r3, r1]
 3205 0038 5343     		muls	r3, r2
 3206 003a FB60     		str	r3, [r7, #12]
 214:..\..\ugfx_2.7\ugfx_2.7\src\gdisp/gdisp.c **** 			gdisp_lld_write_start(g);
 3207              		.loc 6 214 0
 3208 003c 7B68     		ldr	r3, [r7, #4]
 3209 003e 1800     		movs	r0, r3
 3210 0040 FFF7FEFF 		bl	gdisp_lld_write_start
 215:..\..\ugfx_2.7\ugfx_2.7\src\gdisp/gdisp.c **** 			#if GDISP_HARDWARE_STREAM_POS
 216:..\..\ugfx_2.7\ugfx_2.7\src\gdisp/gdisp.c **** 				#if GDISP_HARDWARE_STREAM_POS == HARDWARE_AUTODETECT
 217:..\..\ugfx_2.7\ugfx_2.7\src\gdisp/gdisp.c **** 					if (gvmt(g)->writepos)
 218:..\..\ugfx_2.7\ugfx_2.7\src\gdisp/gdisp.c **** 				#endif
 219:..\..\ugfx_2.7\ugfx_2.7\src\gdisp/gdisp.c **** 				gdisp_lld_write_pos(g);
 3211              		.loc 6 219 0
 3212 0044 7B68     		ldr	r3, [r7, #4]
 3213 0046 1800     		movs	r0, r3
 3214 0048 FFF7FEFF 		bl	gdisp_lld_write_pos
 220:..\..\ugfx_2.7\ugfx_2.7\src\gdisp/gdisp.c **** 			#endif
 221:..\..\ugfx_2.7\ugfx_2.7\src\gdisp/gdisp.c **** 			for(; area; area--)
 3215              		.loc 6 221 0
ARM GAS  C:\Users\megan\AppData\Local\Temp\ccVElWjj.s 			page 80


 3216 004c 06E0     		b	.L235
 3217              	.L236:
 222:..\..\ugfx_2.7\ugfx_2.7\src\gdisp/gdisp.c **** 				gdisp_lld_write_color(g);
 3218              		.loc 6 222 0 discriminator 2
 3219 004e 7B68     		ldr	r3, [r7, #4]
 3220 0050 1800     		movs	r0, r3
 3221 0052 FFF7FEFF 		bl	gdisp_lld_write_color
 221:..\..\ugfx_2.7\ugfx_2.7\src\gdisp/gdisp.c **** 				gdisp_lld_write_color(g);
 3222              		.loc 6 221 0 discriminator 2
 3223 0056 FB68     		ldr	r3, [r7, #12]
 3224 0058 013B     		subs	r3, r3, #1
 3225 005a FB60     		str	r3, [r7, #12]
 3226              	.L235:
 221:..\..\ugfx_2.7\ugfx_2.7\src\gdisp/gdisp.c **** 				gdisp_lld_write_color(g);
 3227              		.loc 6 221 0 is_stmt 0 discriminator 1
 3228 005c FB68     		ldr	r3, [r7, #12]
 3229 005e 002B     		cmp	r3, #0
 3230 0060 F5D1     		bne	.L236
 223:..\..\ugfx_2.7\ugfx_2.7\src\gdisp/gdisp.c **** 			gdisp_lld_write_stop(g);
 3231              		.loc 6 223 0 is_stmt 1
 3232 0062 7B68     		ldr	r3, [r7, #4]
 3233 0064 1800     		movs	r0, r3
 3234 0066 FFF7FEFF 		bl	gdisp_lld_write_stop
 224:..\..\ugfx_2.7\ugfx_2.7\src\gdisp/gdisp.c **** 			return;
 3235              		.loc 6 224 0
 3236 006a C046     		nop
 3237              	.LBE2:
 225:..\..\ugfx_2.7\ugfx_2.7\src\gdisp/gdisp.c **** 		}
 226:..\..\ugfx_2.7\ugfx_2.7\src\gdisp/gdisp.c **** 	#endif
 227:..\..\ugfx_2.7\ugfx_2.7\src\gdisp/gdisp.c **** 
 228:..\..\ugfx_2.7\ugfx_2.7\src\gdisp/gdisp.c **** 	// Worst is pixel drawing
 229:..\..\ugfx_2.7\ugfx_2.7\src\gdisp/gdisp.c **** 	#if GDISP_HARDWARE_FILLS != TRUE && GDISP_HARDWARE_STREAM_WRITE != TRUE && GDISP_HARDWARE_DRAWPIXE
 230:..\..\ugfx_2.7\ugfx_2.7\src\gdisp/gdisp.c **** 		// The following test is unneeded because we are guaranteed to have draw pixel if we don't have s
 231:..\..\ugfx_2.7\ugfx_2.7\src\gdisp/gdisp.c **** 		//#if GDISP_HARDWARE_DRAWPIXEL == HARDWARE_AUTODETECT
 232:..\..\ugfx_2.7\ugfx_2.7\src\gdisp/gdisp.c **** 		//	if (gvmt(g)->pixel)
 233:..\..\ugfx_2.7\ugfx_2.7\src\gdisp/gdisp.c **** 		//#endif
 234:..\..\ugfx_2.7\ugfx_2.7\src\gdisp/gdisp.c **** 		{
 235:..\..\ugfx_2.7\ugfx_2.7\src\gdisp/gdisp.c **** 			coord_t x0, y0, x1, y1;
 236:..\..\ugfx_2.7\ugfx_2.7\src\gdisp/gdisp.c **** 
 237:..\..\ugfx_2.7\ugfx_2.7\src\gdisp/gdisp.c **** 			x0 = g->p.x;
 238:..\..\ugfx_2.7\ugfx_2.7\src\gdisp/gdisp.c **** 			y0 = g->p.y;
 239:..\..\ugfx_2.7\ugfx_2.7\src\gdisp/gdisp.c **** 			x1 = g->p.x + g->p.cx;
 240:..\..\ugfx_2.7\ugfx_2.7\src\gdisp/gdisp.c **** 			y1 = g->p.y + g->p.cy;
 241:..\..\ugfx_2.7\ugfx_2.7\src\gdisp/gdisp.c **** 			for(; g->p.y < y1; g->p.y++, g->p.x = x0)
 242:..\..\ugfx_2.7\ugfx_2.7\src\gdisp/gdisp.c **** 				for(; g->p.x < x1; g->p.x++)
 243:..\..\ugfx_2.7\ugfx_2.7\src\gdisp/gdisp.c **** 					gdisp_lld_draw_pixel(g);
 244:..\..\ugfx_2.7\ugfx_2.7\src\gdisp/gdisp.c **** 			g->p.y = y0;
 245:..\..\ugfx_2.7\ugfx_2.7\src\gdisp/gdisp.c **** 			return;
 246:..\..\ugfx_2.7\ugfx_2.7\src\gdisp/gdisp.c **** 		}
 247:..\..\ugfx_2.7\ugfx_2.7\src\gdisp/gdisp.c **** 	#endif
 248:..\..\ugfx_2.7\ugfx_2.7\src\gdisp/gdisp.c **** }
 3238              		.loc 6 248 0
 3239 006c BD46     		mov	sp, r7
 3240 006e 04B0     		add	sp, sp, #16
 3241              		@ sp needed
 3242 0070 80BD     		pop	{r7, pc}
 3243              		.cfi_endproc
ARM GAS  C:\Users\megan\AppData\Local\Temp\ccVElWjj.s 			page 81


 3244              	.LFE48:
 3245              		.size	fillarea, .-fillarea
 3246 0072 C046     		.section	.text.hline_clip,"ax",%progbits
 3247              		.align	2
 3248              		.code	16
 3249              		.thumb_func
 3250              		.type	hline_clip, %function
 3251              	hline_clip:
 3252              	.LFB49:
 249:..\..\ugfx_2.7\ugfx_2.7\src\gdisp/gdisp.c **** 
 250:..\..\ugfx_2.7\ugfx_2.7\src\gdisp/gdisp.c **** // Parameters:	x,y and x1
 251:..\..\ugfx_2.7\ugfx_2.7\src\gdisp/gdisp.c **** // Alters:		x,y x1,y1 cx,cy
 252:..\..\ugfx_2.7\ugfx_2.7\src\gdisp/gdisp.c **** // Assumes the window covers the screen and a write_stop() will occur later
 253:..\..\ugfx_2.7\ugfx_2.7\src\gdisp/gdisp.c **** //	if GDISP_HARDWARE_STREAM_WRITE and GDISP_HARDWARE_STREAM_POS is set.
 254:..\..\ugfx_2.7\ugfx_2.7\src\gdisp/gdisp.c **** static void hline_clip(GDisplay *g) {
 3253              		.loc 6 254 0
 3254              		.cfi_startproc
 3255              		@ args = 0, pretend = 0, frame = 8
 3256              		@ frame_needed = 1, uses_anonymous_args = 0
 3257 0000 80B5     		push	{r7, lr}
 3258              		.cfi_def_cfa_offset 8
 3259              		.cfi_offset 7, -8
 3260              		.cfi_offset 14, -4
 3261 0002 82B0     		sub	sp, sp, #8
 3262              		.cfi_def_cfa_offset 16
 3263 0004 00AF     		add	r7, sp, #0
 3264              		.cfi_def_cfa_register 7
 3265 0006 7860     		str	r0, [r7, #4]
 255:..\..\ugfx_2.7\ugfx_2.7\src\gdisp/gdisp.c **** 	// Swap the points if necessary so it always goes from x to x1
 256:..\..\ugfx_2.7\ugfx_2.7\src\gdisp/gdisp.c **** 	if (g->p.x1 < g->p.x) {
 3266              		.loc 6 256 0
 3267 0008 7B68     		ldr	r3, [r7, #4]
 3268 000a 3022     		movs	r2, #48
 3269 000c 9A5E     		ldrsh	r2, [r3, r2]
 3270 000e 7B68     		ldr	r3, [r7, #4]
 3271 0010 2821     		movs	r1, #40
 3272 0012 5B5E     		ldrsh	r3, [r3, r1]
 3273 0014 9A42     		cmp	r2, r3
 3274 0016 0EDA     		bge	.L239
 257:..\..\ugfx_2.7\ugfx_2.7\src\gdisp/gdisp.c **** 		g->p.cx = g->p.x; g->p.x = g->p.x1; g->p.x1 = g->p.cx;
 3275              		.loc 6 257 0
 3276 0018 7B68     		ldr	r3, [r7, #4]
 3277 001a 2822     		movs	r2, #40
 3278 001c 9A5E     		ldrsh	r2, [r3, r2]
 3279 001e 7B68     		ldr	r3, [r7, #4]
 3280 0020 9A85     		strh	r2, [r3, #44]
 3281 0022 7B68     		ldr	r3, [r7, #4]
 3282 0024 3022     		movs	r2, #48
 3283 0026 9A5E     		ldrsh	r2, [r3, r2]
 3284 0028 7B68     		ldr	r3, [r7, #4]
 3285 002a 1A85     		strh	r2, [r3, #40]
 3286 002c 7B68     		ldr	r3, [r7, #4]
 3287 002e 2C22     		movs	r2, #44
 3288 0030 9A5E     		ldrsh	r2, [r3, r2]
 3289 0032 7B68     		ldr	r3, [r7, #4]
 3290 0034 1A86     		strh	r2, [r3, #48]
 3291              	.L239:
ARM GAS  C:\Users\megan\AppData\Local\Temp\ccVElWjj.s 			page 82


 258:..\..\ugfx_2.7\ugfx_2.7\src\gdisp/gdisp.c **** 	}
 259:..\..\ugfx_2.7\ugfx_2.7\src\gdisp/gdisp.c **** 
 260:..\..\ugfx_2.7\ugfx_2.7\src\gdisp/gdisp.c **** 	// Clipping
 261:..\..\ugfx_2.7\ugfx_2.7\src\gdisp/gdisp.c **** 	#if NEED_CLIPPING
 262:..\..\ugfx_2.7\ugfx_2.7\src\gdisp/gdisp.c **** 		#if GDISP_HARDWARE_CLIP == HARDWARE_AUTODETECT
 263:..\..\ugfx_2.7\ugfx_2.7\src\gdisp/gdisp.c **** 			if (!gvmt(g)->setclip)
 264:..\..\ugfx_2.7\ugfx_2.7\src\gdisp/gdisp.c **** 		#endif
 265:..\..\ugfx_2.7\ugfx_2.7\src\gdisp/gdisp.c **** 		{
 266:..\..\ugfx_2.7\ugfx_2.7\src\gdisp/gdisp.c **** 			if (g->p.y < g->clipy0 || g->p.y >= g->clipy1) return;
 3292              		.loc 6 266 0
 3293 0036 7B68     		ldr	r3, [r7, #4]
 3294 0038 2A22     		movs	r2, #42
 3295 003a 9A5E     		ldrsh	r2, [r3, r2]
 3296 003c 7B68     		ldr	r3, [r7, #4]
 3297 003e 2221     		movs	r1, #34
 3298 0040 5B5E     		ldrsh	r3, [r3, r1]
 3299 0042 9A42     		cmp	r2, r3
 3300 0044 5EDB     		blt	.L248
 3301              		.loc 6 266 0 is_stmt 0 discriminator 1
 3302 0046 7B68     		ldr	r3, [r7, #4]
 3303 0048 2A22     		movs	r2, #42
 3304 004a 9A5E     		ldrsh	r2, [r3, r2]
 3305 004c 7B68     		ldr	r3, [r7, #4]
 3306 004e 2621     		movs	r1, #38
 3307 0050 5B5E     		ldrsh	r3, [r3, r1]
 3308 0052 9A42     		cmp	r2, r3
 3309 0054 56DA     		bge	.L248
 267:..\..\ugfx_2.7\ugfx_2.7\src\gdisp/gdisp.c **** 			if (g->p.x < g->clipx0) g->p.x = g->clipx0;
 3310              		.loc 6 267 0 is_stmt 1
 3311 0056 7B68     		ldr	r3, [r7, #4]
 3312 0058 2822     		movs	r2, #40
 3313 005a 9A5E     		ldrsh	r2, [r3, r2]
 3314 005c 7B68     		ldr	r3, [r7, #4]
 3315 005e 2021     		movs	r1, #32
 3316 0060 5B5E     		ldrsh	r3, [r3, r1]
 3317 0062 9A42     		cmp	r2, r3
 3318 0064 04DA     		bge	.L243
 3319              		.loc 6 267 0 is_stmt 0 discriminator 1
 3320 0066 7B68     		ldr	r3, [r7, #4]
 3321 0068 2022     		movs	r2, #32
 3322 006a 9A5E     		ldrsh	r2, [r3, r2]
 3323 006c 7B68     		ldr	r3, [r7, #4]
 3324 006e 1A85     		strh	r2, [r3, #40]
 3325              	.L243:
 268:..\..\ugfx_2.7\ugfx_2.7\src\gdisp/gdisp.c **** 			if (g->p.x1 >= g->clipx1) g->p.x1 = g->clipx1 - 1;
 3326              		.loc 6 268 0 is_stmt 1
 3327 0070 7B68     		ldr	r3, [r7, #4]
 3328 0072 3022     		movs	r2, #48
 3329 0074 9A5E     		ldrsh	r2, [r3, r2]
 3330 0076 7B68     		ldr	r3, [r7, #4]
 3331 0078 2421     		movs	r1, #36
 3332 007a 5B5E     		ldrsh	r3, [r3, r1]
 3333 007c 9A42     		cmp	r2, r3
 3334 007e 08DB     		blt	.L244
 3335              		.loc 6 268 0 is_stmt 0 discriminator 1
 3336 0080 7B68     		ldr	r3, [r7, #4]
 3337 0082 2422     		movs	r2, #36
ARM GAS  C:\Users\megan\AppData\Local\Temp\ccVElWjj.s 			page 83


 3338 0084 9B5E     		ldrsh	r3, [r3, r2]
 3339 0086 9BB2     		uxth	r3, r3
 3340 0088 013B     		subs	r3, r3, #1
 3341 008a 9BB2     		uxth	r3, r3
 3342 008c 1AB2     		sxth	r2, r3
 3343 008e 7B68     		ldr	r3, [r7, #4]
 3344 0090 1A86     		strh	r2, [r3, #48]
 3345              	.L244:
 269:..\..\ugfx_2.7\ugfx_2.7\src\gdisp/gdisp.c **** 			if (g->p.x1 < g->p.x) return;
 3346              		.loc 6 269 0 is_stmt 1
 3347 0092 7B68     		ldr	r3, [r7, #4]
 3348 0094 3022     		movs	r2, #48
 3349 0096 9A5E     		ldrsh	r2, [r3, r2]
 3350 0098 7B68     		ldr	r3, [r7, #4]
 3351 009a 2821     		movs	r1, #40
 3352 009c 5B5E     		ldrsh	r3, [r3, r1]
 3353 009e 9A42     		cmp	r2, r3
 3354 00a0 32DB     		blt	.L249
 270:..\..\ugfx_2.7\ugfx_2.7\src\gdisp/gdisp.c **** 		}
 271:..\..\ugfx_2.7\ugfx_2.7\src\gdisp/gdisp.c **** 	#endif
 272:..\..\ugfx_2.7\ugfx_2.7\src\gdisp/gdisp.c **** 
 273:..\..\ugfx_2.7\ugfx_2.7\src\gdisp/gdisp.c **** 	// This is an optimization for the point case. It is only worthwhile however if we
 274:..\..\ugfx_2.7\ugfx_2.7\src\gdisp/gdisp.c **** 	// have hardware fills or if we support both hardware pixel drawing and hardware streaming
 275:..\..\ugfx_2.7\ugfx_2.7\src\gdisp/gdisp.c **** 	#if GDISP_HARDWARE_FILLS || (GDISP_HARDWARE_DRAWPIXEL && GDISP_HARDWARE_STREAM_WRITE)
 276:..\..\ugfx_2.7\ugfx_2.7\src\gdisp/gdisp.c **** 		// Is this a point
 277:..\..\ugfx_2.7\ugfx_2.7\src\gdisp/gdisp.c **** 		if (g->p.x == g->p.x1) {
 278:..\..\ugfx_2.7\ugfx_2.7\src\gdisp/gdisp.c **** 			drawpixel(g);
 279:..\..\ugfx_2.7\ugfx_2.7\src\gdisp/gdisp.c **** 			return;
 280:..\..\ugfx_2.7\ugfx_2.7\src\gdisp/gdisp.c **** 		}
 281:..\..\ugfx_2.7\ugfx_2.7\src\gdisp/gdisp.c **** 	#endif
 282:..\..\ugfx_2.7\ugfx_2.7\src\gdisp/gdisp.c **** 
 283:..\..\ugfx_2.7\ugfx_2.7\src\gdisp/gdisp.c **** 	// Best is hardware accelerated area fill
 284:..\..\ugfx_2.7\ugfx_2.7\src\gdisp/gdisp.c **** 	#if GDISP_HARDWARE_FILLS
 285:..\..\ugfx_2.7\ugfx_2.7\src\gdisp/gdisp.c **** 		#if GDISP_HARDWARE_FILLS == HARDWARE_AUTODETECT
 286:..\..\ugfx_2.7\ugfx_2.7\src\gdisp/gdisp.c **** 			if (gvmt(g)->fill)
 287:..\..\ugfx_2.7\ugfx_2.7\src\gdisp/gdisp.c **** 		#endif
 288:..\..\ugfx_2.7\ugfx_2.7\src\gdisp/gdisp.c **** 		{
 289:..\..\ugfx_2.7\ugfx_2.7\src\gdisp/gdisp.c **** 			g->p.cx = g->p.x1 - g->p.x + 1;
 290:..\..\ugfx_2.7\ugfx_2.7\src\gdisp/gdisp.c **** 			g->p.cy = 1;
 291:..\..\ugfx_2.7\ugfx_2.7\src\gdisp/gdisp.c **** 			gdisp_lld_fill_area(g);
 292:..\..\ugfx_2.7\ugfx_2.7\src\gdisp/gdisp.c **** 			return;
 293:..\..\ugfx_2.7\ugfx_2.7\src\gdisp/gdisp.c **** 		}
 294:..\..\ugfx_2.7\ugfx_2.7\src\gdisp/gdisp.c **** 	#endif
 295:..\..\ugfx_2.7\ugfx_2.7\src\gdisp/gdisp.c **** 
 296:..\..\ugfx_2.7\ugfx_2.7\src\gdisp/gdisp.c **** 	// Next best is cursor based streaming
 297:..\..\ugfx_2.7\ugfx_2.7\src\gdisp/gdisp.c **** 	#if GDISP_HARDWARE_FILLS != TRUE && GDISP_HARDWARE_STREAM_POS && GDISP_HARDWARE_STREAM_WRITE
 298:..\..\ugfx_2.7\ugfx_2.7\src\gdisp/gdisp.c **** 		#if GDISP_HARDWARE_STREAM_POS == HARDWARE_AUTODETECT
 299:..\..\ugfx_2.7\ugfx_2.7\src\gdisp/gdisp.c **** 			if (gvmt(g)->writepos)
 300:..\..\ugfx_2.7\ugfx_2.7\src\gdisp/gdisp.c **** 		#endif
 301:..\..\ugfx_2.7\ugfx_2.7\src\gdisp/gdisp.c **** 		{
 302:..\..\ugfx_2.7\ugfx_2.7\src\gdisp/gdisp.c **** 			if (!(g->flags & GDISP_FLG_SCRSTREAM))
 3355              		.loc 6 302 0
 3356 00a2 7B68     		ldr	r3, [r7, #4]
 3357 00a4 DB8B     		ldrh	r3, [r3, #30]
 3358 00a6 1A00     		movs	r2, r3
 3359 00a8 0223     		movs	r3, #2
 3360 00aa 1340     		ands	r3, r2
ARM GAS  C:\Users\megan\AppData\Local\Temp\ccVElWjj.s 			page 84


 3361 00ac 03D1     		bne	.L246
 303:..\..\ugfx_2.7\ugfx_2.7\src\gdisp/gdisp.c **** 				setglobalwindow(g);
 3362              		.loc 6 303 0
 3363 00ae 7B68     		ldr	r3, [r7, #4]
 3364 00b0 1800     		movs	r0, r3
 3365 00b2 FFF7FEFF 		bl	setglobalwindow
 3366              	.L246:
 304:..\..\ugfx_2.7\ugfx_2.7\src\gdisp/gdisp.c **** 			g->p.cx = g->p.x1 - g->p.x + 1;
 3367              		.loc 6 304 0
 3368 00b6 7B68     		ldr	r3, [r7, #4]
 3369 00b8 3022     		movs	r2, #48
 3370 00ba 9B5E     		ldrsh	r3, [r3, r2]
 3371 00bc 9AB2     		uxth	r2, r3
 3372 00be 7B68     		ldr	r3, [r7, #4]
 3373 00c0 2821     		movs	r1, #40
 3374 00c2 5B5E     		ldrsh	r3, [r3, r1]
 3375 00c4 9BB2     		uxth	r3, r3
 3376 00c6 D31A     		subs	r3, r2, r3
 3377 00c8 9BB2     		uxth	r3, r3
 3378 00ca 0133     		adds	r3, r3, #1
 3379 00cc 9BB2     		uxth	r3, r3
 3380 00ce 1AB2     		sxth	r2, r3
 3381 00d0 7B68     		ldr	r3, [r7, #4]
 3382 00d2 9A85     		strh	r2, [r3, #44]
 305:..\..\ugfx_2.7\ugfx_2.7\src\gdisp/gdisp.c **** 			gdisp_lld_write_pos(g);
 3383              		.loc 6 305 0
 3384 00d4 7B68     		ldr	r3, [r7, #4]
 3385 00d6 1800     		movs	r0, r3
 3386 00d8 FFF7FEFF 		bl	gdisp_lld_write_pos
 3387              	.L247:
 306:..\..\ugfx_2.7\ugfx_2.7\src\gdisp/gdisp.c **** 			do { gdisp_lld_write_color(g); } while(--g->p.cx);
 3388              		.loc 6 306 0 discriminator 1
 3389 00dc 7B68     		ldr	r3, [r7, #4]
 3390 00de 1800     		movs	r0, r3
 3391 00e0 FFF7FEFF 		bl	gdisp_lld_write_color
 3392 00e4 7B68     		ldr	r3, [r7, #4]
 3393 00e6 2C22     		movs	r2, #44
 3394 00e8 9B5E     		ldrsh	r3, [r3, r2]
 3395 00ea 9BB2     		uxth	r3, r3
 3396 00ec 013B     		subs	r3, r3, #1
 3397 00ee 9BB2     		uxth	r3, r3
 3398 00f0 1AB2     		sxth	r2, r3
 3399 00f2 7B68     		ldr	r3, [r7, #4]
 3400 00f4 9A85     		strh	r2, [r3, #44]
 3401 00f6 7B68     		ldr	r3, [r7, #4]
 3402 00f8 2C22     		movs	r2, #44
 3403 00fa 9B5E     		ldrsh	r3, [r3, r2]
 3404 00fc 002B     		cmp	r3, #0
 3405 00fe EDD1     		bne	.L247
 307:..\..\ugfx_2.7\ugfx_2.7\src\gdisp/gdisp.c **** 			return;
 3406              		.loc 6 307 0 discriminator 3
 3407 0100 C046     		nop
 3408 0102 02E0     		b	.L238
 3409              	.L248:
 266:..\..\ugfx_2.7\ugfx_2.7\src\gdisp/gdisp.c **** 			if (g->p.x < g->clipx0) g->p.x = g->clipx0;
 3410              		.loc 6 266 0
 3411 0104 C046     		nop
ARM GAS  C:\Users\megan\AppData\Local\Temp\ccVElWjj.s 			page 85


 3412 0106 00E0     		b	.L238
 3413              	.L249:
 269:..\..\ugfx_2.7\ugfx_2.7\src\gdisp/gdisp.c **** 		}
 3414              		.loc 6 269 0
 3415 0108 C046     		nop
 3416              	.L238:
 308:..\..\ugfx_2.7\ugfx_2.7\src\gdisp/gdisp.c **** 		}
 309:..\..\ugfx_2.7\ugfx_2.7\src\gdisp/gdisp.c **** 	#endif
 310:..\..\ugfx_2.7\ugfx_2.7\src\gdisp/gdisp.c **** 
 311:..\..\ugfx_2.7\ugfx_2.7\src\gdisp/gdisp.c **** 	// Next best is streaming
 312:..\..\ugfx_2.7\ugfx_2.7\src\gdisp/gdisp.c **** 	#if GDISP_HARDWARE_FILLS != TRUE && GDISP_HARDWARE_STREAM_POS != TRUE && GDISP_HARDWARE_STREAM_WRI
 313:..\..\ugfx_2.7\ugfx_2.7\src\gdisp/gdisp.c **** 		#if GDISP_HARDWARE_STREAM_WRITE == HARDWARE_AUTODETECT
 314:..\..\ugfx_2.7\ugfx_2.7\src\gdisp/gdisp.c **** 			if (gvmt(g)->writestart)
 315:..\..\ugfx_2.7\ugfx_2.7\src\gdisp/gdisp.c **** 		#endif
 316:..\..\ugfx_2.7\ugfx_2.7\src\gdisp/gdisp.c **** 		{
 317:..\..\ugfx_2.7\ugfx_2.7\src\gdisp/gdisp.c **** 			g->p.cx = g->p.x1 - g->p.x + 1;
 318:..\..\ugfx_2.7\ugfx_2.7\src\gdisp/gdisp.c **** 			g->p.cy = 1;
 319:..\..\ugfx_2.7\ugfx_2.7\src\gdisp/gdisp.c **** 			gdisp_lld_write_start(g);
 320:..\..\ugfx_2.7\ugfx_2.7\src\gdisp/gdisp.c **** 			do { gdisp_lld_write_color(g); } while(--g->p.cx);
 321:..\..\ugfx_2.7\ugfx_2.7\src\gdisp/gdisp.c **** 			gdisp_lld_write_stop(g);
 322:..\..\ugfx_2.7\ugfx_2.7\src\gdisp/gdisp.c **** 			return;
 323:..\..\ugfx_2.7\ugfx_2.7\src\gdisp/gdisp.c **** 		}
 324:..\..\ugfx_2.7\ugfx_2.7\src\gdisp/gdisp.c **** 	#endif
 325:..\..\ugfx_2.7\ugfx_2.7\src\gdisp/gdisp.c **** 
 326:..\..\ugfx_2.7\ugfx_2.7\src\gdisp/gdisp.c **** 	// Worst is drawing pixels
 327:..\..\ugfx_2.7\ugfx_2.7\src\gdisp/gdisp.c **** 	#if GDISP_HARDWARE_FILLS != TRUE && GDISP_HARDWARE_STREAM_WRITE != TRUE && GDISP_HARDWARE_DRAWPIXE
 328:..\..\ugfx_2.7\ugfx_2.7\src\gdisp/gdisp.c **** 		// The following test is unneeded because we are guaranteed to have draw pixel if we don't have s
 329:..\..\ugfx_2.7\ugfx_2.7\src\gdisp/gdisp.c **** 		//#if GDISP_HARDWARE_DRAWPIXEL == HARDWARE_AUTODETECT
 330:..\..\ugfx_2.7\ugfx_2.7\src\gdisp/gdisp.c **** 		//	if (gvmt(g)->pixel)
 331:..\..\ugfx_2.7\ugfx_2.7\src\gdisp/gdisp.c **** 		//#endif
 332:..\..\ugfx_2.7\ugfx_2.7\src\gdisp/gdisp.c **** 		{
 333:..\..\ugfx_2.7\ugfx_2.7\src\gdisp/gdisp.c **** 			for(; g->p.x <= g->p.x1; g->p.x++)
 334:..\..\ugfx_2.7\ugfx_2.7\src\gdisp/gdisp.c **** 				gdisp_lld_draw_pixel(g);
 335:..\..\ugfx_2.7\ugfx_2.7\src\gdisp/gdisp.c **** 			return;
 336:..\..\ugfx_2.7\ugfx_2.7\src\gdisp/gdisp.c **** 		}
 337:..\..\ugfx_2.7\ugfx_2.7\src\gdisp/gdisp.c **** 	#endif
 338:..\..\ugfx_2.7\ugfx_2.7\src\gdisp/gdisp.c **** }
 3417              		.loc 6 338 0
 3418 010a BD46     		mov	sp, r7
 3419 010c 02B0     		add	sp, sp, #8
 3420              		@ sp needed
 3421 010e 80BD     		pop	{r7, pc}
 3422              		.cfi_endproc
 3423              	.LFE49:
 3424              		.size	hline_clip, .-hline_clip
 3425              		.section	.text.vline_clip,"ax",%progbits
 3426              		.align	2
 3427              		.code	16
 3428              		.thumb_func
 3429              		.type	vline_clip, %function
 3430              	vline_clip:
 3431              	.LFB50:
 339:..\..\ugfx_2.7\ugfx_2.7\src\gdisp/gdisp.c **** 
 340:..\..\ugfx_2.7\ugfx_2.7\src\gdisp/gdisp.c **** // Parameters:	x,y and y1
 341:..\..\ugfx_2.7\ugfx_2.7\src\gdisp/gdisp.c **** // Alters:		x,y x1,y1 cx,cy
 342:..\..\ugfx_2.7\ugfx_2.7\src\gdisp/gdisp.c **** static void vline_clip(GDisplay *g) {
 3432              		.loc 6 342 0
ARM GAS  C:\Users\megan\AppData\Local\Temp\ccVElWjj.s 			page 86


 3433              		.cfi_startproc
 3434              		@ args = 0, pretend = 0, frame = 8
 3435              		@ frame_needed = 1, uses_anonymous_args = 0
 3436 0000 80B5     		push	{r7, lr}
 3437              		.cfi_def_cfa_offset 8
 3438              		.cfi_offset 7, -8
 3439              		.cfi_offset 14, -4
 3440 0002 82B0     		sub	sp, sp, #8
 3441              		.cfi_def_cfa_offset 16
 3442 0004 00AF     		add	r7, sp, #0
 3443              		.cfi_def_cfa_register 7
 3444 0006 7860     		str	r0, [r7, #4]
 343:..\..\ugfx_2.7\ugfx_2.7\src\gdisp/gdisp.c **** 	// Swap the points if necessary so it always goes from y to y1
 344:..\..\ugfx_2.7\ugfx_2.7\src\gdisp/gdisp.c **** 	if (g->p.y1 < g->p.y) {
 3445              		.loc 6 344 0
 3446 0008 7B68     		ldr	r3, [r7, #4]
 3447 000a 3222     		movs	r2, #50
 3448 000c 9A5E     		ldrsh	r2, [r3, r2]
 3449 000e 7B68     		ldr	r3, [r7, #4]
 3450 0010 2A21     		movs	r1, #42
 3451 0012 5B5E     		ldrsh	r3, [r3, r1]
 3452 0014 9A42     		cmp	r2, r3
 3453 0016 0EDA     		bge	.L251
 345:..\..\ugfx_2.7\ugfx_2.7\src\gdisp/gdisp.c **** 		g->p.cy = g->p.y; g->p.y = g->p.y1; g->p.y1 = g->p.cy;
 3454              		.loc 6 345 0
 3455 0018 7B68     		ldr	r3, [r7, #4]
 3456 001a 2A22     		movs	r2, #42
 3457 001c 9A5E     		ldrsh	r2, [r3, r2]
 3458 001e 7B68     		ldr	r3, [r7, #4]
 3459 0020 DA85     		strh	r2, [r3, #46]
 3460 0022 7B68     		ldr	r3, [r7, #4]
 3461 0024 3222     		movs	r2, #50
 3462 0026 9A5E     		ldrsh	r2, [r3, r2]
 3463 0028 7B68     		ldr	r3, [r7, #4]
 3464 002a 5A85     		strh	r2, [r3, #42]
 3465 002c 7B68     		ldr	r3, [r7, #4]
 3466 002e 2E22     		movs	r2, #46
 3467 0030 9A5E     		ldrsh	r2, [r3, r2]
 3468 0032 7B68     		ldr	r3, [r7, #4]
 3469 0034 5A86     		strh	r2, [r3, #50]
 3470              	.L251:
 346:..\..\ugfx_2.7\ugfx_2.7\src\gdisp/gdisp.c **** 	}
 347:..\..\ugfx_2.7\ugfx_2.7\src\gdisp/gdisp.c **** 
 348:..\..\ugfx_2.7\ugfx_2.7\src\gdisp/gdisp.c **** 	// Clipping
 349:..\..\ugfx_2.7\ugfx_2.7\src\gdisp/gdisp.c **** 	#if NEED_CLIPPING
 350:..\..\ugfx_2.7\ugfx_2.7\src\gdisp/gdisp.c **** 		#if GDISP_HARDWARE_CLIP == HARDWARE_AUTODETECT
 351:..\..\ugfx_2.7\ugfx_2.7\src\gdisp/gdisp.c **** 			if (!gvmt(g)->setclip)
 352:..\..\ugfx_2.7\ugfx_2.7\src\gdisp/gdisp.c **** 		#endif
 353:..\..\ugfx_2.7\ugfx_2.7\src\gdisp/gdisp.c **** 		{
 354:..\..\ugfx_2.7\ugfx_2.7\src\gdisp/gdisp.c **** 			if (g->p.x < g->clipx0 || g->p.x >= g->clipx1) return;
 3471              		.loc 6 354 0
 3472 0036 7B68     		ldr	r3, [r7, #4]
 3473 0038 2822     		movs	r2, #40
 3474 003a 9A5E     		ldrsh	r2, [r3, r2]
 3475 003c 7B68     		ldr	r3, [r7, #4]
 3476 003e 2021     		movs	r1, #32
 3477 0040 5B5E     		ldrsh	r3, [r3, r1]
ARM GAS  C:\Users\megan\AppData\Local\Temp\ccVElWjj.s 			page 87


 3478 0042 9A42     		cmp	r2, r3
 3479 0044 00DA     		bge	.LCB2945
 3480 0046 7EE0     		b	.L261	@long jump
 3481              	.LCB2945:
 3482              		.loc 6 354 0 is_stmt 0 discriminator 1
 3483 0048 7B68     		ldr	r3, [r7, #4]
 3484 004a 2822     		movs	r2, #40
 3485 004c 9A5E     		ldrsh	r2, [r3, r2]
 3486 004e 7B68     		ldr	r3, [r7, #4]
 3487 0050 2421     		movs	r1, #36
 3488 0052 5B5E     		ldrsh	r3, [r3, r1]
 3489 0054 9A42     		cmp	r2, r3
 3490 0056 00DB     		blt	.LCB2951
 3491 0058 75E0     		b	.L261	@long jump
 3492              	.LCB2951:
 355:..\..\ugfx_2.7\ugfx_2.7\src\gdisp/gdisp.c **** 			if (g->p.y < g->clipy0) g->p.y = g->clipy0;
 3493              		.loc 6 355 0 is_stmt 1
 3494 005a 7B68     		ldr	r3, [r7, #4]
 3495 005c 2A22     		movs	r2, #42
 3496 005e 9A5E     		ldrsh	r2, [r3, r2]
 3497 0060 7B68     		ldr	r3, [r7, #4]
 3498 0062 2221     		movs	r1, #34
 3499 0064 5B5E     		ldrsh	r3, [r3, r1]
 3500 0066 9A42     		cmp	r2, r3
 3501 0068 04DA     		bge	.L255
 3502              		.loc 6 355 0 is_stmt 0 discriminator 1
 3503 006a 7B68     		ldr	r3, [r7, #4]
 3504 006c 2222     		movs	r2, #34
 3505 006e 9A5E     		ldrsh	r2, [r3, r2]
 3506 0070 7B68     		ldr	r3, [r7, #4]
 3507 0072 5A85     		strh	r2, [r3, #42]
 3508              	.L255:
 356:..\..\ugfx_2.7\ugfx_2.7\src\gdisp/gdisp.c **** 			if (g->p.y1 >= g->clipy1) g->p.y1 = g->clipy1 - 1;
 3509              		.loc 6 356 0 is_stmt 1
 3510 0074 7B68     		ldr	r3, [r7, #4]
 3511 0076 3222     		movs	r2, #50
 3512 0078 9A5E     		ldrsh	r2, [r3, r2]
 3513 007a 7B68     		ldr	r3, [r7, #4]
 3514 007c 2621     		movs	r1, #38
 3515 007e 5B5E     		ldrsh	r3, [r3, r1]
 3516 0080 9A42     		cmp	r2, r3
 3517 0082 08DB     		blt	.L256
 3518              		.loc 6 356 0 is_stmt 0 discriminator 1
 3519 0084 7B68     		ldr	r3, [r7, #4]
 3520 0086 2622     		movs	r2, #38
 3521 0088 9B5E     		ldrsh	r3, [r3, r2]
 3522 008a 9BB2     		uxth	r3, r3
 3523 008c 013B     		subs	r3, r3, #1
 3524 008e 9BB2     		uxth	r3, r3
 3525 0090 1AB2     		sxth	r2, r3
 3526 0092 7B68     		ldr	r3, [r7, #4]
 3527 0094 5A86     		strh	r2, [r3, #50]
 3528              	.L256:
 357:..\..\ugfx_2.7\ugfx_2.7\src\gdisp/gdisp.c **** 			if (g->p.y1 < g->p.y) return;
 3529              		.loc 6 357 0 is_stmt 1
 3530 0096 7B68     		ldr	r3, [r7, #4]
 3531 0098 3222     		movs	r2, #50
ARM GAS  C:\Users\megan\AppData\Local\Temp\ccVElWjj.s 			page 88


 3532 009a 9A5E     		ldrsh	r2, [r3, r2]
 3533 009c 7B68     		ldr	r3, [r7, #4]
 3534 009e 2A21     		movs	r1, #42
 3535 00a0 5B5E     		ldrsh	r3, [r3, r1]
 3536 00a2 9A42     		cmp	r2, r3
 3537 00a4 51DB     		blt	.L262
 358:..\..\ugfx_2.7\ugfx_2.7\src\gdisp/gdisp.c **** 		}
 359:..\..\ugfx_2.7\ugfx_2.7\src\gdisp/gdisp.c **** 	#endif
 360:..\..\ugfx_2.7\ugfx_2.7\src\gdisp/gdisp.c **** 
 361:..\..\ugfx_2.7\ugfx_2.7\src\gdisp/gdisp.c **** 	// This is an optimization for the point case. It is only worthwhile however if we
 362:..\..\ugfx_2.7\ugfx_2.7\src\gdisp/gdisp.c **** 	// have hardware fills or if we support both hardware pixel drawing and hardware streaming
 363:..\..\ugfx_2.7\ugfx_2.7\src\gdisp/gdisp.c **** 	#if GDISP_HARDWARE_FILLS || (GDISP_HARDWARE_DRAWPIXEL && GDISP_HARDWARE_STREAM_WRITE) || (GDISP_HA
 364:..\..\ugfx_2.7\ugfx_2.7\src\gdisp/gdisp.c **** 		// Is this a point
 365:..\..\ugfx_2.7\ugfx_2.7\src\gdisp/gdisp.c **** 		if (g->p.y == g->p.y1) {
 3538              		.loc 6 365 0
 3539 00a6 7B68     		ldr	r3, [r7, #4]
 3540 00a8 2A22     		movs	r2, #42
 3541 00aa 9A5E     		ldrsh	r2, [r3, r2]
 3542 00ac 7B68     		ldr	r3, [r7, #4]
 3543 00ae 3221     		movs	r1, #50
 3544 00b0 5B5E     		ldrsh	r3, [r3, r1]
