ARM GAS  C:\Users\megan\AppData\Local\Temp\cca7nvh8.s 			page 1


   1              		.syntax unified
   2              		.cpu cortex-m0
   3              		.fpu softvfp
   4              		.eabi_attribute 20, 1
   5              		.eabi_attribute 21, 1
   6              		.eabi_attribute 23, 3
   7              		.eabi_attribute 24, 1
   8              		.eabi_attribute 25, 1
   9              		.eabi_attribute 26, 1
  10              		.eabi_attribute 30, 6
  11              		.eabi_attribute 34, 0
  12              		.eabi_attribute 18, 4
  13              		.thumb
  14              		.syntax unified
  15              		.file	"main.c"
  16              		.text
  17              	.Ltext0:
  18              		.cfi_sections	.debug_frame
  19              		.section	.text.main,"ax",%progbits
  20              		.align	2
  21              		.global	main
  22              		.code	16
  23              		.thumb_func
  24              		.type	main, %function
  25              	main:
  26              	.LFB35:
  27              		.file 1 "main.c"
   1:main.c        **** /* ========================================
   2:main.c        ****  *
   3:main.c        ****  * Copyright YOUR COMPANY, THE YEAR
   4:main.c        ****  * All Rights Reserved
   5:main.c        ****  * UNPUBLISHED, LICENSED SOFTWARE.
   6:main.c        ****  *
   7:main.c        ****  * CONFIDENTIAL AND PROPRIETARY INFORMATION
   8:main.c        ****  * WHICH IS THE PROPERTY OF your company.
   9:main.c        ****  *
  10:main.c        ****  * ========================================
  11:main.c        **** */
  12:main.c        **** 
  13:main.c        **** /* Includes */
  14:main.c        **** #include <project.h>
  15:main.c        **** #include <gfx.h>
  16:main.c        **** 
  17:main.c        **** /* Function Delarations */
  18:main.c        **** void StackEventHandler( uint32 eventCode, void *eventParam );
  19:main.c        **** systemticks_t gfxSystemTicks(void);
  20:main.c        **** systemticks_t gfxMillisecondsToTicks(delaytime_t ms);
  21:main.c        **** 
  22:main.c        **** /* define the test register to switch the PA/LNA hardware control pins */
  23:main.c        **** #define CYREG_SRSS_TST_DDFT_CTRL 0x40030008
  24:main.c        **** 
  25:main.c        **** int main()
  26:main.c        **** {
  28              		.loc 1 26 0
  29              		.cfi_startproc
  30              		@ args = 0, pretend = 0, frame = 0
  31              		@ frame_needed = 1, uses_anonymous_args = 0
ARM GAS  C:\Users\megan\AppData\Local\Temp\cca7nvh8.s 			page 2


  32 0000 80B5     		push	{r7, lr}
  33              		.cfi_def_cfa_offset 8
  34              		.cfi_offset 7, -8
  35              		.cfi_offset 14, -4
  36 0002 00AF     		add	r7, sp, #0
  37              		.cfi_def_cfa_register 7
  27:main.c        ****      CyGlobalIntEnable;   /* Enable global interrupts */
  38              		.loc 1 27 0
  39              		.syntax divided
  40              	@ 27 "main.c" 1
  41 0004 62B6     		CPSIE   i
  42              	@ 0 "" 2
  28:main.c        ****     
  29:main.c        ****     /* Place your initialization/startup code here (e.g. MyInst_Start()) */
  30:main.c        ****     CySysTickStart();
  43              		.loc 1 30 0
  44              		.thumb
  45              		.syntax unified
  46 0006 FFF7FEFF 		bl	CySysTickStart
  31:main.c        ****     
  32:main.c        ****     // Initialize the uGFX library
  33:main.c        ****     gfxInit();
  47              		.loc 1 33 0
  48 000a FFF7FEFF 		bl	gfxInit
  34:main.c        ****     
  35:main.c        ****     // Change the display orientation
  36:main.c        ****     //gdispSetOrientation(GDISP_ROTATE_LANDSCAPE);
  37:main.c        ****     
  38:main.c        ****     
  39:main.c        ****     CyBle_Start( StackEventHandler );
  49              		.loc 1 39 0
  50 000e 064B     		ldr	r3, .L3
  51 0010 1800     		movs	r0, r3
  52 0012 FFF7FEFF 		bl	CyBle_Start
  53              	.L2:
  40:main.c        ****     
  41:main.c        ****     for(;;)
  42:main.c        ****     {
  43:main.c        ****         /* Place your application code here */
  44:main.c        ****         gfxSleepMilliseconds(500);
  54              		.loc 1 44 0 discriminator 1
  55 0016 FA23     		movs	r3, #250
  56 0018 5B00     		lsls	r3, r3, #1
  57 001a 1800     		movs	r0, r3
  58 001c FFF7FEFF 		bl	gfxSleepMilliseconds
  45:main.c        ****         CyBle_ProcessEvents();
  59              		.loc 1 45 0 discriminator 1
  60 0020 FFF7FEFF 		bl	CyBle_ProcessEvents
  46:main.c        ****     }
  61              		.loc 1 46 0 discriminator 1
  62 0024 F7E7     		b	.L2
  63              	.L4:
  64 0026 C046     		.align	2
  65              	.L3:
  66 0028 00000000 		.word	StackEventHandler
  67              		.cfi_endproc
  68              	.LFE35:
ARM GAS  C:\Users\megan\AppData\Local\Temp\cca7nvh8.s 			page 3


  69              		.size	main, .-main
  70              		.section	.text.StackEventHandler,"ax",%progbits
  71              		.align	2
  72              		.global	StackEventHandler
  73              		.code	16
  74              		.thumb_func
  75              		.type	StackEventHandler, %function
  76              	StackEventHandler:
  77              	.LFB36:
  47:main.c        **** }
  48:main.c        **** 
  49:main.c        **** 
  50:main.c        **** void StackEventHandler( uint32 eventCode, void *eventParam )
  51:main.c        **** {
  78              		.loc 1 51 0
  79              		.cfi_startproc
  80              		@ args = 0, pretend = 0, frame = 8
  81              		@ frame_needed = 1, uses_anonymous_args = 0
  82 0000 80B5     		push	{r7, lr}
  83              		.cfi_def_cfa_offset 8
  84              		.cfi_offset 7, -8
  85              		.cfi_offset 14, -4
  86 0002 82B0     		sub	sp, sp, #8
  87              		.cfi_def_cfa_offset 16
  88 0004 00AF     		add	r7, sp, #0
  89              		.cfi_def_cfa_register 7
  90 0006 7860     		str	r0, [r7, #4]
  91 0008 3960     		str	r1, [r7]
  52:main.c        ****     switch( eventCode )
  92              		.loc 1 52 0
  93 000a 7B68     		ldr	r3, [r7, #4]
  94 000c 012B     		cmp	r3, #1
  95 000e 00D0     		beq	.L7
  53:main.c        ****     {
  54:main.c        ****         /* Generic events */
  55:main.c        **** 
  56:main.c        ****         case CYBLE_EVT_STACK_ON:
  57:main.c        ****             /* Configure the Link Layer to automatically switch PA
  58:main.c        ****              * control pin P3[2] and LNA control pin P3[3] */
  59:main.c        ****             CY_SET_XTND_REG32((void CYFAR *)(CYREG_BLE_BLESS_RF_CONFIG), 0x0331);
  60:main.c        ****             CY_SET_XTND_REG32((void CYFAR *)(CYREG_SRSS_TST_DDFT_CTRL), 0x80000302);
  61:main.c        ****             /* CyBle_GappStartAdvertisement( CYBLE_ADVERTISING_FAST ); */
  62:main.c        ****         break;
  63:main.c        ****             
  64:main.c        ****         /* Add additional events as required */    
  65:main.c        ****             
  66:main.c        ****         /* default catch-all case */
  67:main.c        **** 
  68:main.c        ****         default:
  69:main.c        ****         break;    
  96              		.loc 1 69 0
  97 0010 06E0     		b	.L8
  98              	.L7:
  59:main.c        ****             CY_SET_XTND_REG32((void CYFAR *)(CYREG_SRSS_TST_DDFT_CTRL), 0x80000302);
  99              		.loc 1 59 0
 100 0012 054B     		ldr	r3, .L9
 101 0014 054A     		ldr	r2, .L9+4
ARM GAS  C:\Users\megan\AppData\Local\Temp\cca7nvh8.s 			page 4


 102 0016 1A60     		str	r2, [r3]
  60:main.c        ****             /* CyBle_GappStartAdvertisement( CYBLE_ADVERTISING_FAST ); */
 103              		.loc 1 60 0
 104 0018 054B     		ldr	r3, .L9+8
 105 001a 064A     		ldr	r2, .L9+12
 106 001c 1A60     		str	r2, [r3]
  62:main.c        ****             
 107              		.loc 1 62 0
 108 001e C046     		nop
 109              	.L8:
  70:main.c        ****     }
  71:main.c        **** }    
 110              		.loc 1 71 0
 111 0020 C046     		nop
 112 0022 BD46     		mov	sp, r7
 113 0024 02B0     		add	sp, sp, #8
 114              		@ sp needed
 115 0026 80BD     		pop	{r7, pc}
 116              	.L10:
 117              		.align	2
 118              	.L9:
 119 0028 60F02E40 		.word	1076818016
 120 002c 31030000 		.word	817
 121 0030 08000340 		.word	1073938440
 122 0034 02030080 		.word	-2147482878
 123              		.cfi_endproc
 124              	.LFE36:
 125              		.size	StackEventHandler, .-StackEventHandler
 126              		.section	.text.gfxSystemTicks,"ax",%progbits
 127              		.align	2
 128              		.global	gfxSystemTicks
 129              		.code	16
 130              		.thumb_func
 131              		.type	gfxSystemTicks, %function
 132              	gfxSystemTicks:
 133              	.LFB37:
  72:main.c        ****             
  73:main.c        **** 
  74:main.c        **** 
  75:main.c        **** systemticks_t gfxSystemTicks() {
 134              		.loc 1 75 0
 135              		.cfi_startproc
 136              		@ args = 0, pretend = 0, frame = 0
 137              		@ frame_needed = 1, uses_anonymous_args = 0
 138 0000 80B5     		push	{r7, lr}
 139              		.cfi_def_cfa_offset 8
 140              		.cfi_offset 7, -8
 141              		.cfi_offset 14, -4
 142 0002 00AF     		add	r7, sp, #0
 143              		.cfi_def_cfa_register 7
  76:main.c        ****     return CySysTickGetValue();
 144              		.loc 1 76 0
 145 0004 FFF7FEFF 		bl	CySysTickGetValue
 146 0008 0300     		movs	r3, r0
  77:main.c        **** }
 147              		.loc 1 77 0
 148 000a 1800     		movs	r0, r3
ARM GAS  C:\Users\megan\AppData\Local\Temp\cca7nvh8.s 			page 5


 149 000c BD46     		mov	sp, r7
 150              		@ sp needed
 151 000e 80BD     		pop	{r7, pc}
 152              		.cfi_endproc
 153              	.LFE37:
 154              		.size	gfxSystemTicks, .-gfxSystemTicks
 155              		.section	.text.gfxMillisecondsToTicks,"ax",%progbits
 156              		.align	2
 157              		.global	gfxMillisecondsToTicks
 158              		.code	16
 159              		.thumb_func
 160              		.type	gfxMillisecondsToTicks, %function
 161              	gfxMillisecondsToTicks:
 162              	.LFB38:
  78:main.c        **** 
  79:main.c        **** systemticks_t gfxMillisecondsToTicks(delaytime_t ms) {
 163              		.loc 1 79 0
 164              		.cfi_startproc
 165              		@ args = 0, pretend = 0, frame = 8
 166              		@ frame_needed = 1, uses_anonymous_args = 0
 167 0000 80B5     		push	{r7, lr}
 168              		.cfi_def_cfa_offset 8
 169              		.cfi_offset 7, -8
 170              		.cfi_offset 14, -4
 171 0002 82B0     		sub	sp, sp, #8
 172              		.cfi_def_cfa_offset 16
 173 0004 00AF     		add	r7, sp, #0
 174              		.cfi_def_cfa_register 7
 175 0006 7860     		str	r0, [r7, #4]
  80:main.c        ****     return ms;
 176              		.loc 1 80 0
 177 0008 7B68     		ldr	r3, [r7, #4]
  81:main.c        **** }
 178              		.loc 1 81 0
 179 000a 1800     		movs	r0, r3
 180 000c BD46     		mov	sp, r7
 181 000e 02B0     		add	sp, sp, #8
 182              		@ sp needed
 183 0010 80BD     		pop	{r7, pc}
 184              		.cfi_endproc
 185              	.LFE38:
 186              		.size	gfxMillisecondsToTicks, .-gfxMillisecondsToTicks
 187 0012 C046     		.text
 188              	.Letext0:
 189              		.file 2 "c:\\program files (x86)\\cypress\\psoc creator\\4.1\\psoc creator\\import\\gnu\\arm\\5.4.
 190              		.file 3 "c:\\program files (x86)\\cypress\\psoc creator\\4.1\\psoc creator\\import\\gnu\\arm\\5.4.
 191              		.file 4 "Generated_Source\\PSoC4/cytypes.h"
 192              		.file 5 "..\\..\\ugfx_2.7\\ugfx_2.7/src/gos/gos_x_threads.h"
 193              		.file 6 "Generated_Source\\PSoC4/BLE_1_Stack.h"